
cicada.elf:     file format elf32-littlearm

Sections:
Idx Name          Size      VMA       LMA       File off  Algn
  0 .text         000042a0  00000000  00000000  00010000  2**2
                  CONTENTS, ALLOC, LOAD, READONLY, CODE
  1 .relocate     0000000c  20000000  000042a0  00020000  2**2
                  CONTENTS, ALLOC, LOAD, DATA
  2 .bss          00003c70  2000000c  000042ac  0002000c  2**2
                  ALLOC
  3 .stack        00002004  20003c7c  00007f1c  0002000c  2**0
                  ALLOC
  4 .ARM.attributes 00000028  00000000  00000000  0002000c  2**0
                  CONTENTS, READONLY
  5 .comment      00000059  00000000  00000000  00020034  2**0
                  CONTENTS, READONLY
  6 .debug_info   00026512  00000000  00000000  0002008d  2**0
                  CONTENTS, READONLY, DEBUGGING
  7 .debug_abbrev 000039a7  00000000  00000000  0004659f  2**0
                  CONTENTS, READONLY, DEBUGGING
  8 .debug_loc    00006afc  00000000  00000000  00049f46  2**0
                  CONTENTS, READONLY, DEBUGGING
  9 .debug_aranges 00000730  00000000  00000000  00050a42  2**0
                  CONTENTS, READONLY, DEBUGGING
 10 .debug_ranges 00000760  00000000  00000000  00051172  2**0
                  CONTENTS, READONLY, DEBUGGING
 11 .debug_macro  00019589  00000000  00000000  000518d2  2**0
                  CONTENTS, READONLY, DEBUGGING
 12 .debug_line   0000bbd0  00000000  00000000  0006ae5b  2**0
                  CONTENTS, READONLY, DEBUGGING
 13 .debug_str    0008b878  00000000  00000000  00076a2b  2**0
                  CONTENTS, READONLY, DEBUGGING
 14 .debug_frame  000013f4  00000000  00000000  001022a4  2**2
                  CONTENTS, READONLY, DEBUGGING

Disassembly of section .text:

00000000 <exception_table>:
       0:	80 5c 00 20 cd 24 00 00 c9 24 00 00 c9 24 00 00     .\. .$...$...$..
	...
      2c:	01 07 00 00 00 00 00 00 00 00 00 00 6d 07 00 00     ............m...
      3c:	b1 07 00 00 c9 24 00 00 c9 24 00 00 c9 24 00 00     .....$...$...$..
      4c:	c9 24 00 00 c9 24 00 00 c9 24 00 00 c9 24 00 00     .$...$...$...$..
      5c:	c9 24 00 00 c9 24 00 00 59 1e 00 00 69 1e 00 00     .$...$..Y...i...
      6c:	79 1e 00 00 89 1e 00 00 99 1e 00 00 a9 1e 00 00     y...............
      7c:	c9 24 00 00 c9 24 00 00 c9 24 00 00 c9 24 00 00     .$...$...$...$..
      8c:	c9 24 00 00 c9 24 00 00 00 00 00 00 00 00 00 00     .$...$..........
      9c:	c9 24 00 00 c9 24 00 00 c9 24 00 00 c9 24 00 00     .$...$...$...$..
      ac:	c9 24 00 00 00 00 00 00                             .$......

000000b4 <__do_global_dtors_aux>:
      b4:	b510      	push	{r4, lr}
      b6:	4c06      	ldr	r4, [pc, #24]	; (d0 <__do_global_dtors_aux+0x1c>)
      b8:	7823      	ldrb	r3, [r4, #0]
      ba:	2b00      	cmp	r3, #0
      bc:	d107      	bne.n	ce <__do_global_dtors_aux+0x1a>
      be:	4b05      	ldr	r3, [pc, #20]	; (d4 <__do_global_dtors_aux+0x20>)
      c0:	2b00      	cmp	r3, #0
      c2:	d002      	beq.n	ca <__do_global_dtors_aux+0x16>
      c4:	4804      	ldr	r0, [pc, #16]	; (d8 <__do_global_dtors_aux+0x24>)
      c6:	e000      	b.n	ca <__do_global_dtors_aux+0x16>
      c8:	bf00      	nop
      ca:	2301      	movs	r3, #1
      cc:	7023      	strb	r3, [r4, #0]
      ce:	bd10      	pop	{r4, pc}
      d0:	2000000c 	.word	0x2000000c
      d4:	00000000 	.word	0x00000000
      d8:	000042a0 	.word	0x000042a0

000000dc <frame_dummy>:
      dc:	4b08      	ldr	r3, [pc, #32]	; (100 <frame_dummy+0x24>)
      de:	b510      	push	{r4, lr}
      e0:	2b00      	cmp	r3, #0
      e2:	d003      	beq.n	ec <frame_dummy+0x10>
      e4:	4907      	ldr	r1, [pc, #28]	; (104 <frame_dummy+0x28>)
      e6:	4808      	ldr	r0, [pc, #32]	; (108 <frame_dummy+0x2c>)
      e8:	e000      	b.n	ec <frame_dummy+0x10>
      ea:	bf00      	nop
      ec:	4807      	ldr	r0, [pc, #28]	; (10c <frame_dummy+0x30>)
      ee:	6803      	ldr	r3, [r0, #0]
      f0:	2b00      	cmp	r3, #0
      f2:	d100      	bne.n	f6 <frame_dummy+0x1a>
      f4:	bd10      	pop	{r4, pc}
      f6:	4b06      	ldr	r3, [pc, #24]	; (110 <frame_dummy+0x34>)
      f8:	2b00      	cmp	r3, #0
      fa:	d0fb      	beq.n	f4 <frame_dummy+0x18>
      fc:	4798      	blx	r3
      fe:	e7f9      	b.n	f4 <frame_dummy+0x18>
     100:	00000000 	.word	0x00000000
     104:	20000010 	.word	0x20000010
     108:	000042a0 	.word	0x000042a0
     10c:	000042a0 	.word	0x000042a0
     110:	00000000 	.word	0x00000000

00000114 <i2c_master_init>:
     114:	b5f0      	push	{r4, r5, r6, r7, lr}
     116:	46d6      	mov	lr, sl
     118:	464f      	mov	r7, r9
     11a:	4646      	mov	r6, r8
     11c:	b5c0      	push	{r6, r7, lr}
     11e:	b08a      	sub	sp, #40	; 0x28
     120:	0006      	movs	r6, r0
     122:	000f      	movs	r7, r1
     124:	0014      	movs	r4, r2
     126:	6031      	str	r1, [r6, #0]
     128:	0008      	movs	r0, r1
     12a:	4ba0      	ldr	r3, [pc, #640]	; (3ac <i2c_master_init+0x298>)
     12c:	4798      	blx	r3
     12e:	4aa0      	ldr	r2, [pc, #640]	; (3b0 <i2c_master_init+0x29c>)
     130:	6a11      	ldr	r1, [r2, #32]
     132:	1c85      	adds	r5, r0, #2
     134:	2301      	movs	r3, #1
     136:	40ab      	lsls	r3, r5
     138:	430b      	orrs	r3, r1
     13a:	6213      	str	r3, [r2, #32]
     13c:	a909      	add	r1, sp, #36	; 0x24
     13e:	7b23      	ldrb	r3, [r4, #12]
     140:	700b      	strb	r3, [r1, #0]
     142:	3014      	adds	r0, #20
     144:	b2c5      	uxtb	r5, r0
     146:	0028      	movs	r0, r5
     148:	4b9a      	ldr	r3, [pc, #616]	; (3b4 <i2c_master_init+0x2a0>)
     14a:	4798      	blx	r3
     14c:	0028      	movs	r0, r5
     14e:	4b9a      	ldr	r3, [pc, #616]	; (3b8 <i2c_master_init+0x2a4>)
     150:	4798      	blx	r3
     152:	7b20      	ldrb	r0, [r4, #12]
     154:	2100      	movs	r1, #0
     156:	4b99      	ldr	r3, [pc, #612]	; (3bc <i2c_master_init+0x2a8>)
     158:	4798      	blx	r3
     15a:	683b      	ldr	r3, [r7, #0]
     15c:	201c      	movs	r0, #28
     15e:	079b      	lsls	r3, r3, #30
     160:	d505      	bpl.n	16e <i2c_master_init+0x5a>
     162:	b00a      	add	sp, #40	; 0x28
     164:	bc1c      	pop	{r2, r3, r4}
     166:	4690      	mov	r8, r2
     168:	4699      	mov	r9, r3
     16a:	46a2      	mov	sl, r4
     16c:	bdf0      	pop	{r4, r5, r6, r7, pc}
     16e:	683b      	ldr	r3, [r7, #0]
     170:	3817      	subs	r0, #23
     172:	07db      	lsls	r3, r3, #31
     174:	d4f5      	bmi.n	162 <i2c_master_init+0x4e>
     176:	6830      	ldr	r0, [r6, #0]
     178:	4b8c      	ldr	r3, [pc, #560]	; (3ac <i2c_master_init+0x298>)
     17a:	4699      	mov	r9, r3
     17c:	4798      	blx	r3
     17e:	0005      	movs	r5, r0
     180:	498f      	ldr	r1, [pc, #572]	; (3c0 <i2c_master_init+0x2ac>)
     182:	4b90      	ldr	r3, [pc, #576]	; (3c4 <i2c_master_init+0x2b0>)
     184:	4798      	blx	r3
     186:	00ad      	lsls	r5, r5, #2
     188:	4b8f      	ldr	r3, [pc, #572]	; (3c8 <i2c_master_init+0x2b4>)
     18a:	50ee      	str	r6, [r5, r3]
     18c:	2300      	movs	r3, #0
     18e:	7633      	strb	r3, [r6, #24]
     190:	7673      	strb	r3, [r6, #25]
     192:	2500      	movs	r5, #0
     194:	8373      	strh	r3, [r6, #26]
     196:	83b3      	strh	r3, [r6, #28]
     198:	2225      	movs	r2, #37	; 0x25
     19a:	54b5      	strb	r5, [r6, r2]
     19c:	6233      	str	r3, [r6, #32]
     19e:	3314      	adds	r3, #20
     1a0:	603b      	str	r3, [r7, #0]
     1a2:	6833      	ldr	r3, [r6, #0]
     1a4:	4698      	mov	r8, r3
     1a6:	0018      	movs	r0, r3
     1a8:	47c8      	blx	r9
     1aa:	4681      	mov	r9, r0
     1ac:	2380      	movs	r3, #128	; 0x80
     1ae:	aa08      	add	r2, sp, #32
     1b0:	7013      	strb	r3, [r2, #0]
     1b2:	7055      	strb	r5, [r2, #1]
     1b4:	2301      	movs	r3, #1
     1b6:	7093      	strb	r3, [r2, #2]
     1b8:	70d5      	strb	r5, [r2, #3]
     1ba:	69e0      	ldr	r0, [r4, #28]
     1bc:	6a27      	ldr	r7, [r4, #32]
     1be:	2800      	cmp	r0, #0
     1c0:	d100      	bne.n	1c4 <i2c_master_init+0xb0>
     1c2:	e0af      	b.n	324 <i2c_master_init+0x210>
     1c4:	ab08      	add	r3, sp, #32
     1c6:	7018      	strb	r0, [r3, #0]
     1c8:	2302      	movs	r3, #2
     1ca:	aa08      	add	r2, sp, #32
     1cc:	7053      	strb	r3, [r2, #1]
     1ce:	0c00      	lsrs	r0, r0, #16
     1d0:	b2c0      	uxtb	r0, r0
     1d2:	0011      	movs	r1, r2
     1d4:	4b7d      	ldr	r3, [pc, #500]	; (3cc <i2c_master_init+0x2b8>)
     1d6:	4798      	blx	r3
     1d8:	2f00      	cmp	r7, #0
     1da:	d100      	bne.n	1de <i2c_master_init+0xca>
     1dc:	e0a7      	b.n	32e <i2c_master_init+0x21a>
     1de:	ab08      	add	r3, sp, #32
     1e0:	701f      	strb	r7, [r3, #0]
     1e2:	2302      	movs	r3, #2
     1e4:	aa08      	add	r2, sp, #32
     1e6:	7053      	strb	r3, [r2, #1]
     1e8:	0c3f      	lsrs	r7, r7, #16
     1ea:	b2f8      	uxtb	r0, r7
     1ec:	0011      	movs	r1, r2
     1ee:	4b77      	ldr	r3, [pc, #476]	; (3cc <i2c_master_init+0x2b8>)
     1f0:	4798      	blx	r3
     1f2:	8aa3      	ldrh	r3, [r4, #20]
     1f4:	80f3      	strh	r3, [r6, #6]
     1f6:	8ae3      	ldrh	r3, [r4, #22]
     1f8:	8133      	strh	r3, [r6, #8]
     1fa:	7e23      	ldrb	r3, [r4, #24]
     1fc:	2280      	movs	r2, #128	; 0x80
     1fe:	2b00      	cmp	r3, #0
     200:	d104      	bne.n	20c <i2c_master_init+0xf8>
     202:	4b73      	ldr	r3, [pc, #460]	; (3d0 <i2c_master_init+0x2bc>)
     204:	789b      	ldrb	r3, [r3, #2]
     206:	079b      	lsls	r3, r3, #30
     208:	0fdb      	lsrs	r3, r3, #31
     20a:	01da      	lsls	r2, r3, #7
     20c:	68a1      	ldr	r1, [r4, #8]
     20e:	6923      	ldr	r3, [r4, #16]
     210:	430b      	orrs	r3, r1
     212:	4313      	orrs	r3, r2
     214:	2224      	movs	r2, #36	; 0x24
     216:	5ca2      	ldrb	r2, [r4, r2]
     218:	2a00      	cmp	r2, #0
     21a:	d002      	beq.n	222 <i2c_master_init+0x10e>
     21c:	2280      	movs	r2, #128	; 0x80
     21e:	05d2      	lsls	r2, r2, #23
     220:	4313      	orrs	r3, r2
     222:	6aa2      	ldr	r2, [r4, #40]	; 0x28
     224:	4313      	orrs	r3, r2
     226:	222c      	movs	r2, #44	; 0x2c
     228:	5ca2      	ldrb	r2, [r4, r2]
     22a:	2a00      	cmp	r2, #0
     22c:	d103      	bne.n	236 <i2c_master_init+0x122>
     22e:	2280      	movs	r2, #128	; 0x80
     230:	0492      	lsls	r2, r2, #18
     232:	4291      	cmp	r1, r2
     234:	d102      	bne.n	23c <i2c_master_init+0x128>
     236:	2280      	movs	r2, #128	; 0x80
     238:	0512      	lsls	r2, r2, #20
     23a:	4313      	orrs	r3, r2
     23c:	222d      	movs	r2, #45	; 0x2d
     23e:	5ca2      	ldrb	r2, [r4, r2]
     240:	2a00      	cmp	r2, #0
     242:	d002      	beq.n	24a <i2c_master_init+0x136>
     244:	2280      	movs	r2, #128	; 0x80
     246:	0412      	lsls	r2, r2, #16
     248:	4313      	orrs	r3, r2
     24a:	222e      	movs	r2, #46	; 0x2e
     24c:	5ca2      	ldrb	r2, [r4, r2]
     24e:	2a00      	cmp	r2, #0
     250:	d002      	beq.n	258 <i2c_master_init+0x144>
     252:	2280      	movs	r2, #128	; 0x80
     254:	03d2      	lsls	r2, r2, #15
     256:	4313      	orrs	r3, r2
     258:	4642      	mov	r2, r8
     25a:	6812      	ldr	r2, [r2, #0]
     25c:	4313      	orrs	r3, r2
     25e:	4642      	mov	r2, r8
     260:	6013      	str	r3, [r2, #0]
     262:	2380      	movs	r3, #128	; 0x80
     264:	005b      	lsls	r3, r3, #1
     266:	6053      	str	r3, [r2, #4]
     268:	4648      	mov	r0, r9
     26a:	3014      	adds	r0, #20
     26c:	b2c0      	uxtb	r0, r0
     26e:	4b59      	ldr	r3, [pc, #356]	; (3d4 <i2c_master_init+0x2c0>)
     270:	4798      	blx	r3
     272:	9007      	str	r0, [sp, #28]
     274:	23fa      	movs	r3, #250	; 0xfa
     276:	009b      	lsls	r3, r3, #2
     278:	6822      	ldr	r2, [r4, #0]
     27a:	435a      	muls	r2, r3
     27c:	4691      	mov	r9, r2
     27e:	6863      	ldr	r3, [r4, #4]
     280:	469a      	mov	sl, r3
     282:	4d55      	ldr	r5, [pc, #340]	; (3d8 <i2c_master_init+0x2c4>)
     284:	47a8      	blx	r5
     286:	9000      	str	r0, [sp, #0]
     288:	9101      	str	r1, [sp, #4]
     28a:	464b      	mov	r3, r9
     28c:	0058      	lsls	r0, r3, #1
     28e:	47a8      	blx	r5
     290:	9002      	str	r0, [sp, #8]
     292:	9103      	str	r1, [sp, #12]
     294:	8e20      	ldrh	r0, [r4, #48]	; 0x30
     296:	47a8      	blx	r5
     298:	9004      	str	r0, [sp, #16]
     29a:	9105      	str	r1, [sp, #20]
     29c:	4f4f      	ldr	r7, [pc, #316]	; (3dc <i2c_master_init+0x2c8>)
     29e:	4a50      	ldr	r2, [pc, #320]	; (3e0 <i2c_master_init+0x2cc>)
     2a0:	4b50      	ldr	r3, [pc, #320]	; (3e4 <i2c_master_init+0x2d0>)
     2a2:	9800      	ldr	r0, [sp, #0]
     2a4:	9901      	ldr	r1, [sp, #4]
     2a6:	47b8      	blx	r7
     2a8:	0002      	movs	r2, r0
     2aa:	000b      	movs	r3, r1
     2ac:	9804      	ldr	r0, [sp, #16]
     2ae:	9905      	ldr	r1, [sp, #20]
     2b0:	47b8      	blx	r7
     2b2:	4e4d      	ldr	r6, [pc, #308]	; (3e8 <i2c_master_init+0x2d4>)
     2b4:	2200      	movs	r2, #0
     2b6:	4b4d      	ldr	r3, [pc, #308]	; (3ec <i2c_master_init+0x2d8>)
     2b8:	47b0      	blx	r6
     2ba:	9004      	str	r0, [sp, #16]
     2bc:	9105      	str	r1, [sp, #20]
     2be:	4648      	mov	r0, r9
     2c0:	47a8      	blx	r5
     2c2:	0002      	movs	r2, r0
     2c4:	000b      	movs	r3, r1
     2c6:	9804      	ldr	r0, [sp, #16]
     2c8:	9905      	ldr	r1, [sp, #20]
     2ca:	47b8      	blx	r7
     2cc:	0002      	movs	r2, r0
     2ce:	000b      	movs	r3, r1
     2d0:	4d47      	ldr	r5, [pc, #284]	; (3f0 <i2c_master_init+0x2dc>)
     2d2:	9800      	ldr	r0, [sp, #0]
     2d4:	9901      	ldr	r1, [sp, #4]
     2d6:	47a8      	blx	r5
     2d8:	9a02      	ldr	r2, [sp, #8]
     2da:	9b03      	ldr	r3, [sp, #12]
     2dc:	47b0      	blx	r6
     2de:	2200      	movs	r2, #0
     2e0:	4b44      	ldr	r3, [pc, #272]	; (3f4 <i2c_master_init+0x2e0>)
     2e2:	47a8      	blx	r5
     2e4:	9a02      	ldr	r2, [sp, #8]
     2e6:	9b03      	ldr	r3, [sp, #12]
     2e8:	4d43      	ldr	r5, [pc, #268]	; (3f8 <i2c_master_init+0x2e4>)
     2ea:	47a8      	blx	r5
     2ec:	4b43      	ldr	r3, [pc, #268]	; (3fc <i2c_master_init+0x2e8>)
     2ee:	4798      	blx	r3
     2f0:	0005      	movs	r5, r0
     2f2:	2380      	movs	r3, #128	; 0x80
     2f4:	049b      	lsls	r3, r3, #18
     2f6:	68a2      	ldr	r2, [r4, #8]
     2f8:	429a      	cmp	r2, r3
     2fa:	d01e      	beq.n	33a <i2c_master_init+0x226>
     2fc:	0003      	movs	r3, r0
     2fe:	2040      	movs	r0, #64	; 0x40
     300:	2dff      	cmp	r5, #255	; 0xff
     302:	d900      	bls.n	306 <i2c_master_init+0x1f2>
     304:	e72d      	b.n	162 <i2c_master_init+0x4e>
     306:	2400      	movs	r4, #0
     308:	2000      	movs	r0, #0
     30a:	25ff      	movs	r5, #255	; 0xff
     30c:	401d      	ands	r5, r3
     30e:	0624      	lsls	r4, r4, #24
     310:	4325      	orrs	r5, r4
     312:	0400      	lsls	r0, r0, #16
     314:	23ff      	movs	r3, #255	; 0xff
     316:	041b      	lsls	r3, r3, #16
     318:	4018      	ands	r0, r3
     31a:	4305      	orrs	r5, r0
     31c:	4643      	mov	r3, r8
     31e:	60dd      	str	r5, [r3, #12]
     320:	2000      	movs	r0, #0
     322:	e71e      	b.n	162 <i2c_master_init+0x4e>
     324:	2100      	movs	r1, #0
     326:	4640      	mov	r0, r8
     328:	4b35      	ldr	r3, [pc, #212]	; (400 <i2c_master_init+0x2ec>)
     32a:	4798      	blx	r3
     32c:	e74a      	b.n	1c4 <i2c_master_init+0xb0>
     32e:	2101      	movs	r1, #1
     330:	4640      	mov	r0, r8
     332:	4b33      	ldr	r3, [pc, #204]	; (400 <i2c_master_init+0x2ec>)
     334:	4798      	blx	r3
     336:	0007      	movs	r7, r0
     338:	e751      	b.n	1de <i2c_master_init+0xca>
     33a:	26fa      	movs	r6, #250	; 0xfa
     33c:	00b6      	lsls	r6, r6, #2
     33e:	4653      	mov	r3, sl
     340:	435e      	muls	r6, r3
     342:	9800      	ldr	r0, [sp, #0]
     344:	9901      	ldr	r1, [sp, #4]
     346:	0002      	movs	r2, r0
     348:	000b      	movs	r3, r1
     34a:	4c27      	ldr	r4, [pc, #156]	; (3e8 <i2c_master_init+0x2d4>)
     34c:	47a0      	blx	r4
     34e:	9000      	str	r0, [sp, #0]
     350:	9101      	str	r1, [sp, #4]
     352:	0030      	movs	r0, r6
     354:	4b20      	ldr	r3, [pc, #128]	; (3d8 <i2c_master_init+0x2c4>)
     356:	4798      	blx	r3
     358:	2200      	movs	r2, #0
     35a:	4b2a      	ldr	r3, [pc, #168]	; (404 <i2c_master_init+0x2f0>)
     35c:	47b8      	blx	r7
     35e:	0002      	movs	r2, r0
     360:	000b      	movs	r3, r1
     362:	9800      	ldr	r0, [sp, #0]
     364:	9901      	ldr	r1, [sp, #4]
     366:	4c24      	ldr	r4, [pc, #144]	; (3f8 <i2c_master_init+0x2e4>)
     368:	47a0      	blx	r4
     36a:	2200      	movs	r2, #0
     36c:	4b21      	ldr	r3, [pc, #132]	; (3f4 <i2c_master_init+0x2e0>)
     36e:	4c20      	ldr	r4, [pc, #128]	; (3f0 <i2c_master_init+0x2dc>)
     370:	47a0      	blx	r4
     372:	4b22      	ldr	r3, [pc, #136]	; (3fc <i2c_master_init+0x2e8>)
     374:	4798      	blx	r3
     376:	1e04      	subs	r4, r0, #0
     378:	d00c      	beq.n	394 <i2c_master_init+0x280>
     37a:	0031      	movs	r1, r6
     37c:	9807      	ldr	r0, [sp, #28]
     37e:	4b22      	ldr	r3, [pc, #136]	; (408 <i2c_master_init+0x2f4>)
     380:	4798      	blx	r3
     382:	3802      	subs	r0, #2
     384:	1b00      	subs	r0, r0, r4
     386:	002b      	movs	r3, r5
     388:	2dff      	cmp	r5, #255	; 0xff
     38a:	d80c      	bhi.n	3a6 <i2c_master_init+0x292>
     38c:	28ff      	cmp	r0, #255	; 0xff
     38e:	d9bc      	bls.n	30a <i2c_master_init+0x1f6>
     390:	2040      	movs	r0, #64	; 0x40
     392:	e6e6      	b.n	162 <i2c_master_init+0x4e>
     394:	0071      	lsls	r1, r6, #1
     396:	1e48      	subs	r0, r1, #1
     398:	9b07      	ldr	r3, [sp, #28]
     39a:	469c      	mov	ip, r3
     39c:	4460      	add	r0, ip
     39e:	4b1a      	ldr	r3, [pc, #104]	; (408 <i2c_master_init+0x2f4>)
     3a0:	4798      	blx	r3
     3a2:	3801      	subs	r0, #1
     3a4:	e7ef      	b.n	386 <i2c_master_init+0x272>
     3a6:	2040      	movs	r0, #64	; 0x40
     3a8:	e6db      	b.n	162 <i2c_master_init+0x4e>
     3aa:	46c0      	nop			; (mov r8, r8)
     3ac:	00001db1 	.word	0x00001db1
     3b0:	40000400 	.word	0x40000400
     3b4:	00002371 	.word	0x00002371
     3b8:	000022e5 	.word	0x000022e5
     3bc:	00001bed 	.word	0x00001bed
     3c0:	000004dd 	.word	0x000004dd
     3c4:	00001ded 	.word	0x00001ded
     3c8:	20003c3c 	.word	0x20003c3c
     3cc:	00002469 	.word	0x00002469
     3d0:	41002000 	.word	0x41002000
     3d4:	0000238d 	.word	0x0000238d
     3d8:	00004049 	.word	0x00004049
     3dc:	000034b5 	.word	0x000034b5
     3e0:	e826d695 	.word	0xe826d695
     3e4:	3e112e0b 	.word	0x3e112e0b
     3e8:	0000282d 	.word	0x0000282d
     3ec:	40240000 	.word	0x40240000
     3f0:	000039b5 	.word	0x000039b5
     3f4:	3ff00000 	.word	0x3ff00000
     3f8:	00002e4d 	.word	0x00002e4d
     3fc:	00003fe1 	.word	0x00003fe1
     400:	00001c39 	.word	0x00001c39
     404:	40080000 	.word	0x40080000
     408:	00002715 	.word	0x00002715

0000040c <_i2c_master_wait_for_sync>:
     40c:	6801      	ldr	r1, [r0, #0]
     40e:	2207      	movs	r2, #7
     410:	69cb      	ldr	r3, [r1, #28]
     412:	421a      	tst	r2, r3
     414:	d1fc      	bne.n	410 <_i2c_master_wait_for_sync+0x4>
     416:	4770      	bx	lr

00000418 <_i2c_master_read>:
     418:	b570      	push	{r4, r5, r6, lr}
     41a:	0004      	movs	r4, r0
     41c:	6806      	ldr	r6, [r0, #0]
     41e:	6832      	ldr	r2, [r6, #0]
     420:	8b45      	ldrh	r5, [r0, #26]
     422:	8b83      	ldrh	r3, [r0, #28]
     424:	1aed      	subs	r5, r5, r3
     426:	b2ad      	uxth	r5, r5
     428:	8b83      	ldrh	r3, [r0, #28]
     42a:	3b01      	subs	r3, #1
     42c:	b29b      	uxth	r3, r3
     42e:	8383      	strh	r3, [r0, #28]
     430:	0113      	lsls	r3, r2, #4
     432:	d51d      	bpl.n	470 <_i2c_master_read+0x58>
     434:	7ac3      	ldrb	r3, [r0, #11]
     436:	2b00      	cmp	r3, #0
     438:	d003      	beq.n	442 <_i2c_master_read+0x2a>
     43a:	8b83      	ldrh	r3, [r0, #28]
     43c:	b29b      	uxth	r3, r3
     43e:	2b01      	cmp	r3, #1
     440:	d010      	beq.n	464 <_i2c_master_read+0x4c>
     442:	8ba3      	ldrh	r3, [r4, #28]
     444:	b29b      	uxth	r3, r3
     446:	2b00      	cmp	r3, #0
     448:	d102      	bne.n	450 <_i2c_master_read+0x38>
     44a:	7aa3      	ldrb	r3, [r4, #10]
     44c:	2b00      	cmp	r3, #0
     44e:	d11c      	bne.n	48a <_i2c_master_read+0x72>
     450:	0020      	movs	r0, r4
     452:	4b12      	ldr	r3, [pc, #72]	; (49c <_i2c_master_read+0x84>)
     454:	4798      	blx	r3
     456:	6a23      	ldr	r3, [r4, #32]
     458:	195d      	adds	r5, r3, r5
     45a:	2328      	movs	r3, #40	; 0x28
     45c:	5cf3      	ldrb	r3, [r6, r3]
     45e:	b2db      	uxtb	r3, r3
     460:	702b      	strb	r3, [r5, #0]
     462:	bd70      	pop	{r4, r5, r6, pc}
     464:	6872      	ldr	r2, [r6, #4]
     466:	2380      	movs	r3, #128	; 0x80
     468:	02db      	lsls	r3, r3, #11
     46a:	4313      	orrs	r3, r2
     46c:	6073      	str	r3, [r6, #4]
     46e:	e7e8      	b.n	442 <_i2c_master_read+0x2a>
     470:	7ac3      	ldrb	r3, [r0, #11]
     472:	2b00      	cmp	r3, #0
     474:	d0e5      	beq.n	442 <_i2c_master_read+0x2a>
     476:	8b83      	ldrh	r3, [r0, #28]
     478:	b29b      	uxth	r3, r3
     47a:	2b00      	cmp	r3, #0
     47c:	d1e1      	bne.n	442 <_i2c_master_read+0x2a>
     47e:	6872      	ldr	r2, [r6, #4]
     480:	2380      	movs	r3, #128	; 0x80
     482:	02db      	lsls	r3, r3, #11
     484:	4313      	orrs	r3, r2
     486:	6073      	str	r3, [r6, #4]
     488:	e7db      	b.n	442 <_i2c_master_read+0x2a>
     48a:	0020      	movs	r0, r4
     48c:	4b03      	ldr	r3, [pc, #12]	; (49c <_i2c_master_read+0x84>)
     48e:	4798      	blx	r3
     490:	6872      	ldr	r2, [r6, #4]
     492:	23c0      	movs	r3, #192	; 0xc0
     494:	029b      	lsls	r3, r3, #10
     496:	4313      	orrs	r3, r2
     498:	6073      	str	r3, [r6, #4]
     49a:	e7d9      	b.n	450 <_i2c_master_read+0x38>
     49c:	0000040d 	.word	0x0000040d

000004a0 <_i2c_master_write>:
     4a0:	b570      	push	{r4, r5, r6, lr}
     4a2:	0004      	movs	r4, r0
     4a4:	6805      	ldr	r5, [r0, #0]
     4a6:	8b6b      	ldrh	r3, [r5, #26]
     4a8:	075b      	lsls	r3, r3, #29
     4aa:	d503      	bpl.n	4b4 <_i2c_master_write+0x14>
     4ac:	221e      	movs	r2, #30
     4ae:	2325      	movs	r3, #37	; 0x25
     4b0:	54c2      	strb	r2, [r0, r3]
     4b2:	bd70      	pop	{r4, r5, r6, pc}
     4b4:	8b46      	ldrh	r6, [r0, #26]
     4b6:	8b83      	ldrh	r3, [r0, #28]
     4b8:	1af6      	subs	r6, r6, r3
     4ba:	b2b6      	uxth	r6, r6
     4bc:	8b83      	ldrh	r3, [r0, #28]
     4be:	3b01      	subs	r3, #1
     4c0:	b29b      	uxth	r3, r3
     4c2:	8383      	strh	r3, [r0, #28]
     4c4:	4b04      	ldr	r3, [pc, #16]	; (4d8 <_i2c_master_write+0x38>)
     4c6:	4798      	blx	r3
     4c8:	6a23      	ldr	r3, [r4, #32]
     4ca:	199e      	adds	r6, r3, r6
     4cc:	7833      	ldrb	r3, [r6, #0]
     4ce:	b2db      	uxtb	r3, r3
     4d0:	2228      	movs	r2, #40	; 0x28
     4d2:	54ab      	strb	r3, [r5, r2]
     4d4:	e7ed      	b.n	4b2 <_i2c_master_write+0x12>
     4d6:	46c0      	nop			; (mov r8, r8)
     4d8:	0000040d 	.word	0x0000040d

000004dc <_i2c_master_interrupt_handler>:
     4dc:	b570      	push	{r4, r5, r6, lr}
     4de:	0080      	lsls	r0, r0, #2
     4e0:	4b75      	ldr	r3, [pc, #468]	; (6b8 <_i2c_master_interrupt_handler+0x1dc>)
     4e2:	58c4      	ldr	r4, [r0, r3]
     4e4:	6825      	ldr	r5, [r4, #0]
     4e6:	682b      	ldr	r3, [r5, #0]
     4e8:	011b      	lsls	r3, r3, #4
     4ea:	0fda      	lsrs	r2, r3, #31
     4ec:	7e63      	ldrb	r3, [r4, #25]
     4ee:	7e26      	ldrb	r6, [r4, #24]
     4f0:	401e      	ands	r6, r3
     4f2:	8b63      	ldrh	r3, [r4, #26]
     4f4:	b29b      	uxth	r3, r3
     4f6:	2b00      	cmp	r3, #0
     4f8:	d103      	bne.n	502 <_i2c_master_interrupt_handler+0x26>
     4fa:	8ba3      	ldrh	r3, [r4, #28]
     4fc:	b29b      	uxth	r3, r3
     4fe:	2b00      	cmp	r3, #0
     500:	d123      	bne.n	54a <_i2c_master_interrupt_handler+0x6e>
     502:	8b63      	ldrh	r3, [r4, #26]
     504:	b29b      	uxth	r3, r3
     506:	2b00      	cmp	r3, #0
     508:	d008      	beq.n	51c <_i2c_master_interrupt_handler+0x40>
     50a:	8ba3      	ldrh	r3, [r4, #28]
     50c:	b29b      	uxth	r3, r3
     50e:	2b00      	cmp	r3, #0
     510:	d104      	bne.n	51c <_i2c_master_interrupt_handler+0x40>
     512:	3325      	adds	r3, #37	; 0x25
     514:	5ce3      	ldrb	r3, [r4, r3]
     516:	2b05      	cmp	r3, #5
     518:	d100      	bne.n	51c <_i2c_master_interrupt_handler+0x40>
     51a:	e06d      	b.n	5f8 <_i2c_master_interrupt_handler+0x11c>
     51c:	8b63      	ldrh	r3, [r4, #26]
     51e:	b29b      	uxth	r3, r3
     520:	2b00      	cmp	r3, #0
     522:	d024      	beq.n	56e <_i2c_master_interrupt_handler+0x92>
     524:	8ba3      	ldrh	r3, [r4, #28]
     526:	b29b      	uxth	r3, r3
     528:	2b00      	cmp	r3, #0
     52a:	d020      	beq.n	56e <_i2c_master_interrupt_handler+0x92>
     52c:	8b6b      	ldrh	r3, [r5, #26]
     52e:	069b      	lsls	r3, r3, #26
     530:	d500      	bpl.n	534 <_i2c_master_interrupt_handler+0x58>
     532:	e081      	b.n	638 <_i2c_master_interrupt_handler+0x15c>
     534:	2a00      	cmp	r2, #0
     536:	d004      	beq.n	542 <_i2c_master_interrupt_handler+0x66>
     538:	8ba3      	ldrh	r3, [r4, #28]
     53a:	b29b      	uxth	r3, r3
     53c:	2b01      	cmp	r3, #1
     53e:	d100      	bne.n	542 <_i2c_master_interrupt_handler+0x66>
     540:	e07a      	b.n	638 <_i2c_master_interrupt_handler+0x15c>
     542:	2241      	movs	r2, #65	; 0x41
     544:	2325      	movs	r3, #37	; 0x25
     546:	54e2      	strb	r2, [r4, r3]
     548:	e011      	b.n	56e <_i2c_master_interrupt_handler+0x92>
     54a:	7e2b      	ldrb	r3, [r5, #24]
     54c:	07db      	lsls	r3, r3, #31
     54e:	d507      	bpl.n	560 <_i2c_master_interrupt_handler+0x84>
     550:	2301      	movs	r3, #1
     552:	762b      	strb	r3, [r5, #24]
     554:	8b6b      	ldrh	r3, [r5, #26]
     556:	079b      	lsls	r3, r3, #30
     558:	d52e      	bpl.n	5b8 <_i2c_master_interrupt_handler+0xdc>
     55a:	2241      	movs	r2, #65	; 0x41
     55c:	2325      	movs	r3, #37	; 0x25
     55e:	54e2      	strb	r2, [r4, r3]
     560:	8ba3      	ldrh	r3, [r4, #28]
     562:	b29b      	uxth	r3, r3
     564:	8363      	strh	r3, [r4, #26]
     566:	2325      	movs	r3, #37	; 0x25
     568:	5ce3      	ldrb	r3, [r4, r3]
     56a:	2b05      	cmp	r3, #5
     56c:	d038      	beq.n	5e0 <_i2c_master_interrupt_handler+0x104>
     56e:	8b63      	ldrh	r3, [r4, #26]
     570:	b29b      	uxth	r3, r3
     572:	2b00      	cmp	r3, #0
     574:	d007      	beq.n	586 <_i2c_master_interrupt_handler+0xaa>
     576:	8ba3      	ldrh	r3, [r4, #28]
     578:	b29b      	uxth	r3, r3
     57a:	2b00      	cmp	r3, #0
     57c:	d103      	bne.n	586 <_i2c_master_interrupt_handler+0xaa>
     57e:	3325      	adds	r3, #37	; 0x25
     580:	5ce3      	ldrb	r3, [r4, r3]
     582:	2b05      	cmp	r3, #5
     584:	d064      	beq.n	650 <_i2c_master_interrupt_handler+0x174>
     586:	2325      	movs	r3, #37	; 0x25
     588:	5ce3      	ldrb	r3, [r4, r3]
     58a:	2b05      	cmp	r3, #5
     58c:	d013      	beq.n	5b6 <_i2c_master_interrupt_handler+0xda>
     58e:	2325      	movs	r3, #37	; 0x25
     590:	5ce3      	ldrb	r3, [r4, r3]
     592:	2b00      	cmp	r3, #0
     594:	d00f      	beq.n	5b6 <_i2c_master_interrupt_handler+0xda>
     596:	2303      	movs	r3, #3
     598:	752b      	strb	r3, [r5, #20]
     59a:	2300      	movs	r3, #0
     59c:	8363      	strh	r3, [r4, #26]
     59e:	83a3      	strh	r3, [r4, #28]
     5a0:	3325      	adds	r3, #37	; 0x25
     5a2:	5ce3      	ldrb	r3, [r4, r3]
     5a4:	2b41      	cmp	r3, #65	; 0x41
     5a6:	d003      	beq.n	5b0 <_i2c_master_interrupt_handler+0xd4>
     5a8:	7aa3      	ldrb	r3, [r4, #10]
     5aa:	2b00      	cmp	r3, #0
     5ac:	d000      	beq.n	5b0 <_i2c_master_interrupt_handler+0xd4>
     5ae:	e075      	b.n	69c <_i2c_master_interrupt_handler+0x1c0>
     5b0:	0773      	lsls	r3, r6, #29
     5b2:	d500      	bpl.n	5b6 <_i2c_master_interrupt_handler+0xda>
     5b4:	e07b      	b.n	6ae <_i2c_master_interrupt_handler+0x1d2>
     5b6:	bd70      	pop	{r4, r5, r6, pc}
     5b8:	8b6b      	ldrh	r3, [r5, #26]
     5ba:	075b      	lsls	r3, r3, #29
     5bc:	d5d0      	bpl.n	560 <_i2c_master_interrupt_handler+0x84>
     5be:	2218      	movs	r2, #24
     5c0:	2325      	movs	r3, #37	; 0x25
     5c2:	54e2      	strb	r2, [r4, r3]
     5c4:	2300      	movs	r3, #0
     5c6:	83a3      	strh	r3, [r4, #28]
     5c8:	7aa3      	ldrb	r3, [r4, #10]
     5ca:	2b00      	cmp	r3, #0
     5cc:	d0c8      	beq.n	560 <_i2c_master_interrupt_handler+0x84>
     5ce:	0020      	movs	r0, r4
     5d0:	4b3a      	ldr	r3, [pc, #232]	; (6bc <_i2c_master_interrupt_handler+0x1e0>)
     5d2:	4798      	blx	r3
     5d4:	686a      	ldr	r2, [r5, #4]
     5d6:	23c0      	movs	r3, #192	; 0xc0
     5d8:	029b      	lsls	r3, r3, #10
     5da:	4313      	orrs	r3, r2
     5dc:	606b      	str	r3, [r5, #4]
     5de:	e7bf      	b.n	560 <_i2c_master_interrupt_handler+0x84>
     5e0:	331f      	adds	r3, #31
     5e2:	5ce3      	ldrb	r3, [r4, r3]
     5e4:	2b00      	cmp	r3, #0
     5e6:	d003      	beq.n	5f0 <_i2c_master_interrupt_handler+0x114>
     5e8:	0020      	movs	r0, r4
     5ea:	4b35      	ldr	r3, [pc, #212]	; (6c0 <_i2c_master_interrupt_handler+0x1e4>)
     5ec:	4798      	blx	r3
     5ee:	e7be      	b.n	56e <_i2c_master_interrupt_handler+0x92>
     5f0:	0020      	movs	r0, r4
     5f2:	4b34      	ldr	r3, [pc, #208]	; (6c4 <_i2c_master_interrupt_handler+0x1e8>)
     5f4:	4798      	blx	r3
     5f6:	e7ba      	b.n	56e <_i2c_master_interrupt_handler+0x92>
     5f8:	331f      	adds	r3, #31
     5fa:	5ce3      	ldrb	r3, [r4, r3]
     5fc:	2b00      	cmp	r3, #0
     5fe:	d000      	beq.n	602 <_i2c_master_interrupt_handler+0x126>
     600:	e78c      	b.n	51c <_i2c_master_interrupt_handler+0x40>
     602:	3303      	adds	r3, #3
     604:	752b      	strb	r3, [r5, #20]
     606:	2300      	movs	r3, #0
     608:	8363      	strh	r3, [r4, #26]
     60a:	3325      	adds	r3, #37	; 0x25
     60c:	2200      	movs	r2, #0
     60e:	54e2      	strb	r2, [r4, r3]
     610:	7aa3      	ldrb	r3, [r4, #10]
     612:	2b00      	cmp	r3, #0
     614:	d107      	bne.n	626 <_i2c_master_interrupt_handler+0x14a>
     616:	2301      	movs	r3, #1
     618:	762b      	strb	r3, [r5, #24]
     61a:	07f3      	lsls	r3, r6, #31
     61c:	d5a7      	bpl.n	56e <_i2c_master_interrupt_handler+0x92>
     61e:	68e3      	ldr	r3, [r4, #12]
     620:	0020      	movs	r0, r4
     622:	4798      	blx	r3
     624:	e7a3      	b.n	56e <_i2c_master_interrupt_handler+0x92>
     626:	0020      	movs	r0, r4
     628:	4b24      	ldr	r3, [pc, #144]	; (6bc <_i2c_master_interrupt_handler+0x1e0>)
     62a:	4798      	blx	r3
     62c:	686a      	ldr	r2, [r5, #4]
     62e:	23c0      	movs	r3, #192	; 0xc0
     630:	029b      	lsls	r3, r3, #10
     632:	4313      	orrs	r3, r2
     634:	606b      	str	r3, [r5, #4]
     636:	e7f0      	b.n	61a <_i2c_master_interrupt_handler+0x13e>
     638:	2324      	movs	r3, #36	; 0x24
     63a:	5ce3      	ldrb	r3, [r4, r3]
     63c:	2b00      	cmp	r3, #0
     63e:	d103      	bne.n	648 <_i2c_master_interrupt_handler+0x16c>
     640:	0020      	movs	r0, r4
     642:	4b20      	ldr	r3, [pc, #128]	; (6c4 <_i2c_master_interrupt_handler+0x1e8>)
     644:	4798      	blx	r3
     646:	e792      	b.n	56e <_i2c_master_interrupt_handler+0x92>
     648:	0020      	movs	r0, r4
     64a:	4b1d      	ldr	r3, [pc, #116]	; (6c0 <_i2c_master_interrupt_handler+0x1e4>)
     64c:	4798      	blx	r3
     64e:	e78e      	b.n	56e <_i2c_master_interrupt_handler+0x92>
     650:	331f      	adds	r3, #31
     652:	5ce3      	ldrb	r3, [r4, r3]
     654:	2b01      	cmp	r3, #1
     656:	d196      	bne.n	586 <_i2c_master_interrupt_handler+0xaa>
     658:	7e2b      	ldrb	r3, [r5, #24]
     65a:	079b      	lsls	r3, r3, #30
     65c:	d501      	bpl.n	662 <_i2c_master_interrupt_handler+0x186>
     65e:	2302      	movs	r3, #2
     660:	762b      	strb	r3, [r5, #24]
     662:	2303      	movs	r3, #3
     664:	752b      	strb	r3, [r5, #20]
     666:	2300      	movs	r3, #0
     668:	8363      	strh	r3, [r4, #26]
     66a:	3325      	adds	r3, #37	; 0x25
     66c:	2200      	movs	r2, #0
     66e:	54e2      	strb	r2, [r4, r3]
     670:	07b3      	lsls	r3, r6, #30
     672:	d503      	bpl.n	67c <_i2c_master_interrupt_handler+0x1a0>
     674:	2324      	movs	r3, #36	; 0x24
     676:	5ce3      	ldrb	r3, [r4, r3]
     678:	2b01      	cmp	r3, #1
     67a:	d00b      	beq.n	694 <_i2c_master_interrupt_handler+0x1b8>
     67c:	07f3      	lsls	r3, r6, #31
     67e:	d400      	bmi.n	682 <_i2c_master_interrupt_handler+0x1a6>
     680:	e781      	b.n	586 <_i2c_master_interrupt_handler+0xaa>
     682:	2324      	movs	r3, #36	; 0x24
     684:	5ce3      	ldrb	r3, [r4, r3]
     686:	2b00      	cmp	r3, #0
     688:	d000      	beq.n	68c <_i2c_master_interrupt_handler+0x1b0>
     68a:	e77c      	b.n	586 <_i2c_master_interrupt_handler+0xaa>
     68c:	68e3      	ldr	r3, [r4, #12]
     68e:	0020      	movs	r0, r4
     690:	4798      	blx	r3
     692:	e778      	b.n	586 <_i2c_master_interrupt_handler+0xaa>
     694:	6923      	ldr	r3, [r4, #16]
     696:	0020      	movs	r0, r4
     698:	4798      	blx	r3
     69a:	e774      	b.n	586 <_i2c_master_interrupt_handler+0xaa>
     69c:	0020      	movs	r0, r4
     69e:	4b07      	ldr	r3, [pc, #28]	; (6bc <_i2c_master_interrupt_handler+0x1e0>)
     6a0:	4798      	blx	r3
     6a2:	686a      	ldr	r2, [r5, #4]
     6a4:	23e0      	movs	r3, #224	; 0xe0
     6a6:	02db      	lsls	r3, r3, #11
     6a8:	4313      	orrs	r3, r2
     6aa:	606b      	str	r3, [r5, #4]
     6ac:	e780      	b.n	5b0 <_i2c_master_interrupt_handler+0xd4>
     6ae:	6963      	ldr	r3, [r4, #20]
     6b0:	0020      	movs	r0, r4
     6b2:	4798      	blx	r3
     6b4:	e77f      	b.n	5b6 <_i2c_master_interrupt_handler+0xda>
     6b6:	46c0      	nop			; (mov r8, r8)
     6b8:	20003c3c 	.word	0x20003c3c
     6bc:	0000040d 	.word	0x0000040d
     6c0:	00000419 	.word	0x00000419
     6c4:	000004a1 	.word	0x000004a1

000006c8 <vPortStartFirstTask>:
     6c8:	4a06      	ldr	r2, [pc, #24]	; (6e4 <pxCurrentTCBConst3>)
     6ca:	6813      	ldr	r3, [r2, #0]
     6cc:	6818      	ldr	r0, [r3, #0]
     6ce:	3020      	adds	r0, #32
     6d0:	f380 8809 	msr	PSP, r0
     6d4:	2002      	movs	r0, #2
     6d6:	f380 8814 	msr	CONTROL, r0
     6da:	bc3f      	pop	{r0, r1, r2, r3, r4, r5}
     6dc:	46ae      	mov	lr, r5
     6de:	b662      	cpsie	i
     6e0:	bd00      	pop	{pc}
     6e2:	46c0      	nop			; (mov r8, r8)

000006e4 <pxCurrentTCBConst3>:
     6e4:	20003ac8 	.word	0x20003ac8

000006e8 <pxPortInitialiseStack>:
     6e8:	b510      	push	{r4, lr}
     6ea:	1f03      	subs	r3, r0, #4
     6ec:	2480      	movs	r4, #128	; 0x80
     6ee:	0464      	lsls	r4, r4, #17
     6f0:	601c      	str	r4, [r3, #0]
     6f2:	3b04      	subs	r3, #4
     6f4:	6019      	str	r1, [r3, #0]
     6f6:	3b18      	subs	r3, #24
     6f8:	601a      	str	r2, [r3, #0]
     6fa:	3840      	subs	r0, #64	; 0x40
     6fc:	bd10      	pop	{r4, pc}
	...

00000700 <SVC_Handler>:
     700:	4b08      	ldr	r3, [pc, #32]	; (724 <pxCurrentTCBConst2>)
     702:	6819      	ldr	r1, [r3, #0]
     704:	6808      	ldr	r0, [r1, #0]
     706:	3010      	adds	r0, #16
     708:	c8f0      	ldmia	r0!, {r4, r5, r6, r7}
     70a:	46a0      	mov	r8, r4
     70c:	46a9      	mov	r9, r5
     70e:	46b2      	mov	sl, r6
     710:	46bb      	mov	fp, r7
     712:	f380 8809 	msr	PSP, r0
     716:	3820      	subs	r0, #32
     718:	c8f0      	ldmia	r0!, {r4, r5, r6, r7}
     71a:	4671      	mov	r1, lr
     71c:	200d      	movs	r0, #13
     71e:	4301      	orrs	r1, r0
     720:	4708      	bx	r1
     722:	46c0      	nop			; (mov r8, r8)

00000724 <pxCurrentTCBConst2>:
     724:	20003ac8 	.word	0x20003ac8

00000728 <vPortYield>:
     728:	2280      	movs	r2, #128	; 0x80
     72a:	0552      	lsls	r2, r2, #21
     72c:	4b03      	ldr	r3, [pc, #12]	; (73c <vPortYield+0x14>)
     72e:	601a      	str	r2, [r3, #0]
     730:	f3bf 8f4f 	dsb	sy
     734:	f3bf 8f6f 	isb	sy
     738:	4770      	bx	lr
     73a:	46c0      	nop			; (mov r8, r8)
     73c:	e000ed04 	.word	0xe000ed04

00000740 <vPortEnterCritical>:
     740:	b672      	cpsid	i
     742:	4a04      	ldr	r2, [pc, #16]	; (754 <vPortEnterCritical+0x14>)
     744:	6813      	ldr	r3, [r2, #0]
     746:	3301      	adds	r3, #1
     748:	6013      	str	r3, [r2, #0]
     74a:	f3bf 8f4f 	dsb	sy
     74e:	f3bf 8f6f 	isb	sy
     752:	4770      	bx	lr
     754:	20000000 	.word	0x20000000

00000758 <vPortExitCritical>:
     758:	4a03      	ldr	r2, [pc, #12]	; (768 <vPortExitCritical+0x10>)
     75a:	6813      	ldr	r3, [r2, #0]
     75c:	3b01      	subs	r3, #1
     75e:	6013      	str	r3, [r2, #0]
     760:	2b00      	cmp	r3, #0
     762:	d100      	bne.n	766 <vPortExitCritical+0xe>
     764:	b662      	cpsie	i
     766:	4770      	bx	lr
     768:	20000000 	.word	0x20000000

0000076c <PendSV_Handler>:
     76c:	f3ef 8009 	mrs	r0, PSP
     770:	4b0e      	ldr	r3, [pc, #56]	; (7ac <pxCurrentTCBConst>)
     772:	681a      	ldr	r2, [r3, #0]
     774:	3820      	subs	r0, #32
     776:	6010      	str	r0, [r2, #0]
     778:	c0f0      	stmia	r0!, {r4, r5, r6, r7}
     77a:	4644      	mov	r4, r8
     77c:	464d      	mov	r5, r9
     77e:	4656      	mov	r6, sl
     780:	465f      	mov	r7, fp
     782:	c0f0      	stmia	r0!, {r4, r5, r6, r7}
     784:	b508      	push	{r3, lr}
     786:	b672      	cpsid	i
     788:	f000 fe9e 	bl	14c8 <vTaskSwitchContext>
     78c:	b662      	cpsie	i
     78e:	bc0c      	pop	{r2, r3}
     790:	6811      	ldr	r1, [r2, #0]
     792:	6808      	ldr	r0, [r1, #0]
     794:	3010      	adds	r0, #16
     796:	c8f0      	ldmia	r0!, {r4, r5, r6, r7}
     798:	46a0      	mov	r8, r4
     79a:	46a9      	mov	r9, r5
     79c:	46b2      	mov	sl, r6
     79e:	46bb      	mov	fp, r7
     7a0:	f380 8809 	msr	PSP, r0
     7a4:	3820      	subs	r0, #32
     7a6:	c8f0      	ldmia	r0!, {r4, r5, r6, r7}
     7a8:	4718      	bx	r3
     7aa:	46c0      	nop			; (mov r8, r8)

000007ac <pxCurrentTCBConst>:
     7ac:	20003ac8 	.word	0x20003ac8

000007b0 <SysTick_Handler>:
     7b0:	b510      	push	{r4, lr}
     7b2:	2280      	movs	r2, #128	; 0x80
     7b4:	0552      	lsls	r2, r2, #21
     7b6:	4b03      	ldr	r3, [pc, #12]	; (7c4 <SysTick_Handler+0x14>)
     7b8:	601a      	str	r2, [r3, #0]
     7ba:	b672      	cpsid	i
     7bc:	4b02      	ldr	r3, [pc, #8]	; (7c8 <SysTick_Handler+0x18>)
     7be:	4798      	blx	r3
     7c0:	b662      	cpsie	i
     7c2:	bd10      	pop	{r4, pc}
     7c4:	e000ed04 	.word	0xe000ed04
     7c8:	00001229 	.word	0x00001229

000007cc <vPortSetupTimerInterrupt>:
     7cc:	2200      	movs	r2, #0
     7ce:	4b04      	ldr	r3, [pc, #16]	; (7e0 <vPortSetupTimerInterrupt+0x14>)
     7d0:	601a      	str	r2, [r3, #0]
     7d2:	4a04      	ldr	r2, [pc, #16]	; (7e4 <vPortSetupTimerInterrupt+0x18>)
     7d4:	4b04      	ldr	r3, [pc, #16]	; (7e8 <vPortSetupTimerInterrupt+0x1c>)
     7d6:	601a      	str	r2, [r3, #0]
     7d8:	2207      	movs	r2, #7
     7da:	4b04      	ldr	r3, [pc, #16]	; (7ec <vPortSetupTimerInterrupt+0x20>)
     7dc:	601a      	str	r2, [r3, #0]
     7de:	4770      	bx	lr
     7e0:	e000e018 	.word	0xe000e018
     7e4:	00001f3f 	.word	0x00001f3f
     7e8:	e000e014 	.word	0xe000e014
     7ec:	e000e010 	.word	0xe000e010

000007f0 <xPortStartScheduler>:
     7f0:	b510      	push	{r4, lr}
     7f2:	4b0a      	ldr	r3, [pc, #40]	; (81c <xPortStartScheduler+0x2c>)
     7f4:	6819      	ldr	r1, [r3, #0]
     7f6:	22ff      	movs	r2, #255	; 0xff
     7f8:	0412      	lsls	r2, r2, #16
     7fa:	430a      	orrs	r2, r1
     7fc:	601a      	str	r2, [r3, #0]
     7fe:	6819      	ldr	r1, [r3, #0]
     800:	22ff      	movs	r2, #255	; 0xff
     802:	0612      	lsls	r2, r2, #24
     804:	430a      	orrs	r2, r1
     806:	601a      	str	r2, [r3, #0]
     808:	4b05      	ldr	r3, [pc, #20]	; (820 <xPortStartScheduler+0x30>)
     80a:	4798      	blx	r3
     80c:	2200      	movs	r2, #0
     80e:	4b05      	ldr	r3, [pc, #20]	; (824 <xPortStartScheduler+0x34>)
     810:	601a      	str	r2, [r3, #0]
     812:	4b05      	ldr	r3, [pc, #20]	; (828 <xPortStartScheduler+0x38>)
     814:	4798      	blx	r3
     816:	2000      	movs	r0, #0
     818:	bd10      	pop	{r4, pc}
     81a:	46c0      	nop			; (mov r8, r8)
     81c:	e000ed20 	.word	0xe000ed20
     820:	000007cd 	.word	0x000007cd
     824:	20000000 	.word	0x20000000
     828:	000006c9 	.word	0x000006c9

0000082c <pvPortMalloc>:
     82c:	b570      	push	{r4, r5, r6, lr}
     82e:	0004      	movs	r4, r0
     830:	0743      	lsls	r3, r0, #29
     832:	d002      	beq.n	83a <pvPortMalloc+0xe>
     834:	2307      	movs	r3, #7
     836:	439c      	bics	r4, r3
     838:	3408      	adds	r4, #8
     83a:	4b11      	ldr	r3, [pc, #68]	; (880 <pvPortMalloc+0x54>)
     83c:	4798      	blx	r3
     83e:	4b11      	ldr	r3, [pc, #68]	; (884 <pvPortMalloc+0x58>)
     840:	681b      	ldr	r3, [r3, #0]
     842:	2b00      	cmp	r3, #0
     844:	d010      	beq.n	868 <pvPortMalloc+0x3c>
     846:	4b10      	ldr	r3, [pc, #64]	; (888 <pvPortMalloc+0x5c>)
     848:	681b      	ldr	r3, [r3, #0]
     84a:	18e4      	adds	r4, r4, r3
     84c:	4a0f      	ldr	r2, [pc, #60]	; (88c <pvPortMalloc+0x60>)
     84e:	4294      	cmp	r4, r2
     850:	d811      	bhi.n	876 <pvPortMalloc+0x4a>
     852:	42a3      	cmp	r3, r4
     854:	d211      	bcs.n	87a <pvPortMalloc+0x4e>
     856:	4a0b      	ldr	r2, [pc, #44]	; (884 <pvPortMalloc+0x58>)
     858:	6815      	ldr	r5, [r2, #0]
     85a:	18ed      	adds	r5, r5, r3
     85c:	4b0a      	ldr	r3, [pc, #40]	; (888 <pvPortMalloc+0x5c>)
     85e:	601c      	str	r4, [r3, #0]
     860:	4b0b      	ldr	r3, [pc, #44]	; (890 <pvPortMalloc+0x64>)
     862:	4798      	blx	r3
     864:	0028      	movs	r0, r5
     866:	bd70      	pop	{r4, r5, r6, pc}
     868:	2207      	movs	r2, #7
     86a:	4b0a      	ldr	r3, [pc, #40]	; (894 <pvPortMalloc+0x68>)
     86c:	3308      	adds	r3, #8
     86e:	4393      	bics	r3, r2
     870:	4a04      	ldr	r2, [pc, #16]	; (884 <pvPortMalloc+0x58>)
     872:	6013      	str	r3, [r2, #0]
     874:	e7e7      	b.n	846 <pvPortMalloc+0x1a>
     876:	2500      	movs	r5, #0
     878:	e7f2      	b.n	860 <pvPortMalloc+0x34>
     87a:	2500      	movs	r5, #0
     87c:	e7f0      	b.n	860 <pvPortMalloc+0x34>
     87e:	46c0      	nop			; (mov r8, r8)
     880:	000011f9 	.word	0x000011f9
     884:	20000028 	.word	0x20000028
     888:	20003ac4 	.word	0x20003ac4
     88c:	00003a8f 	.word	0x00003a8f
     890:	00001345 	.word	0x00001345
     894:	2000002c 	.word	0x2000002c

00000898 <vPortFree>:
     898:	2800      	cmp	r0, #0
     89a:	d001      	beq.n	8a0 <vPortFree+0x8>
     89c:	b672      	cpsid	i
     89e:	e7fe      	b.n	89e <vPortFree+0x6>
     8a0:	4770      	bx	lr

000008a2 <vListInitialise>:
     8a2:	0003      	movs	r3, r0
     8a4:	3308      	adds	r3, #8
     8a6:	6043      	str	r3, [r0, #4]
     8a8:	2201      	movs	r2, #1
     8aa:	4252      	negs	r2, r2
     8ac:	6082      	str	r2, [r0, #8]
     8ae:	60c3      	str	r3, [r0, #12]
     8b0:	6103      	str	r3, [r0, #16]
     8b2:	2300      	movs	r3, #0
     8b4:	6003      	str	r3, [r0, #0]
     8b6:	4770      	bx	lr

000008b8 <vListInitialiseItem>:
     8b8:	2300      	movs	r3, #0
     8ba:	6103      	str	r3, [r0, #16]
     8bc:	4770      	bx	lr

000008be <vListInsertEnd>:
     8be:	6843      	ldr	r3, [r0, #4]
     8c0:	685a      	ldr	r2, [r3, #4]
     8c2:	604a      	str	r2, [r1, #4]
     8c4:	6842      	ldr	r2, [r0, #4]
     8c6:	608a      	str	r2, [r1, #8]
     8c8:	685a      	ldr	r2, [r3, #4]
     8ca:	6091      	str	r1, [r2, #8]
     8cc:	6059      	str	r1, [r3, #4]
     8ce:	6041      	str	r1, [r0, #4]
     8d0:	6108      	str	r0, [r1, #16]
     8d2:	6803      	ldr	r3, [r0, #0]
     8d4:	3301      	adds	r3, #1
     8d6:	6003      	str	r3, [r0, #0]
     8d8:	4770      	bx	lr

000008da <vListInsert>:
     8da:	b510      	push	{r4, lr}
     8dc:	680c      	ldr	r4, [r1, #0]
     8de:	1c63      	adds	r3, r4, #1
     8e0:	d014      	beq.n	90c <vListInsert+0x32>
     8e2:	0003      	movs	r3, r0
     8e4:	3308      	adds	r3, #8
     8e6:	68c2      	ldr	r2, [r0, #12]
     8e8:	6812      	ldr	r2, [r2, #0]
     8ea:	4294      	cmp	r4, r2
     8ec:	d304      	bcc.n	8f8 <vListInsert+0x1e>
     8ee:	685b      	ldr	r3, [r3, #4]
     8f0:	685a      	ldr	r2, [r3, #4]
     8f2:	6812      	ldr	r2, [r2, #0]
     8f4:	4294      	cmp	r4, r2
     8f6:	d2fa      	bcs.n	8ee <vListInsert+0x14>
     8f8:	685a      	ldr	r2, [r3, #4]
     8fa:	604a      	str	r2, [r1, #4]
     8fc:	6091      	str	r1, [r2, #8]
     8fe:	608b      	str	r3, [r1, #8]
     900:	6059      	str	r1, [r3, #4]
     902:	6108      	str	r0, [r1, #16]
     904:	6803      	ldr	r3, [r0, #0]
     906:	3301      	adds	r3, #1
     908:	6003      	str	r3, [r0, #0]
     90a:	bd10      	pop	{r4, pc}
     90c:	6903      	ldr	r3, [r0, #16]
     90e:	e7f3      	b.n	8f8 <vListInsert+0x1e>

00000910 <uxListRemove>:
     910:	6843      	ldr	r3, [r0, #4]
     912:	6882      	ldr	r2, [r0, #8]
     914:	609a      	str	r2, [r3, #8]
     916:	6883      	ldr	r3, [r0, #8]
     918:	6842      	ldr	r2, [r0, #4]
     91a:	605a      	str	r2, [r3, #4]
     91c:	6903      	ldr	r3, [r0, #16]
     91e:	685a      	ldr	r2, [r3, #4]
     920:	4290      	cmp	r0, r2
     922:	d006      	beq.n	932 <uxListRemove+0x22>
     924:	2200      	movs	r2, #0
     926:	6102      	str	r2, [r0, #16]
     928:	681a      	ldr	r2, [r3, #0]
     92a:	3a01      	subs	r2, #1
     92c:	601a      	str	r2, [r3, #0]
     92e:	6818      	ldr	r0, [r3, #0]
     930:	4770      	bx	lr
     932:	6882      	ldr	r2, [r0, #8]
     934:	605a      	str	r2, [r3, #4]
     936:	e7f5      	b.n	924 <uxListRemove+0x14>

00000938 <prvCopyDataToQueue>:
     938:	b510      	push	{r4, lr}
     93a:	0004      	movs	r4, r0
     93c:	0013      	movs	r3, r2
     93e:	6c02      	ldr	r2, [r0, #64]	; 0x40
     940:	2a00      	cmp	r2, #0
     942:	d10b      	bne.n	95c <prvCopyDataToQueue+0x24>
     944:	6803      	ldr	r3, [r0, #0]
     946:	2b00      	cmp	r3, #0
     948:	d104      	bne.n	954 <prvCopyDataToQueue+0x1c>
     94a:	6840      	ldr	r0, [r0, #4]
     94c:	4b13      	ldr	r3, [pc, #76]	; (99c <prvCopyDataToQueue+0x64>)
     94e:	4798      	blx	r3
     950:	2300      	movs	r3, #0
     952:	6063      	str	r3, [r4, #4]
     954:	6ba3      	ldr	r3, [r4, #56]	; 0x38
     956:	3301      	adds	r3, #1
     958:	63a3      	str	r3, [r4, #56]	; 0x38
     95a:	bd10      	pop	{r4, pc}
     95c:	2b00      	cmp	r3, #0
     95e:	d10d      	bne.n	97c <prvCopyDataToQueue+0x44>
     960:	6880      	ldr	r0, [r0, #8]
     962:	4b0f      	ldr	r3, [pc, #60]	; (9a0 <prvCopyDataToQueue+0x68>)
     964:	4798      	blx	r3
     966:	68a3      	ldr	r3, [r4, #8]
     968:	6c22      	ldr	r2, [r4, #64]	; 0x40
     96a:	4694      	mov	ip, r2
     96c:	4463      	add	r3, ip
     96e:	60a3      	str	r3, [r4, #8]
     970:	6862      	ldr	r2, [r4, #4]
     972:	4293      	cmp	r3, r2
     974:	d3ee      	bcc.n	954 <prvCopyDataToQueue+0x1c>
     976:	6823      	ldr	r3, [r4, #0]
     978:	60a3      	str	r3, [r4, #8]
     97a:	e7eb      	b.n	954 <prvCopyDataToQueue+0x1c>
     97c:	68c0      	ldr	r0, [r0, #12]
     97e:	4b08      	ldr	r3, [pc, #32]	; (9a0 <prvCopyDataToQueue+0x68>)
     980:	4798      	blx	r3
     982:	6c23      	ldr	r3, [r4, #64]	; 0x40
     984:	425b      	negs	r3, r3
     986:	68e2      	ldr	r2, [r4, #12]
     988:	18d2      	adds	r2, r2, r3
     98a:	60e2      	str	r2, [r4, #12]
     98c:	6821      	ldr	r1, [r4, #0]
     98e:	428a      	cmp	r2, r1
     990:	d2e0      	bcs.n	954 <prvCopyDataToQueue+0x1c>
     992:	6862      	ldr	r2, [r4, #4]
     994:	4694      	mov	ip, r2
     996:	4463      	add	r3, ip
     998:	60e3      	str	r3, [r4, #12]
     99a:	e7db      	b.n	954 <prvCopyDataToQueue+0x1c>
     99c:	000017d1 	.word	0x000017d1
     9a0:	0000413d 	.word	0x0000413d

000009a4 <prvNotifyQueueSetContainer>:
     9a4:	b510      	push	{r4, lr}
     9a6:	b082      	sub	sp, #8
     9a8:	9001      	str	r0, [sp, #4]
     9aa:	000a      	movs	r2, r1
     9ac:	6cc4      	ldr	r4, [r0, #76]	; 0x4c
     9ae:	2c00      	cmp	r4, #0
     9b0:	d005      	beq.n	9be <prvNotifyQueueSetContainer+0x1a>
     9b2:	6ba1      	ldr	r1, [r4, #56]	; 0x38
     9b4:	6be3      	ldr	r3, [r4, #60]	; 0x3c
     9b6:	4299      	cmp	r1, r3
     9b8:	d303      	bcc.n	9c2 <prvNotifyQueueSetContainer+0x1e>
     9ba:	b672      	cpsid	i
     9bc:	e7fe      	b.n	9bc <prvNotifyQueueSetContainer+0x18>
     9be:	b672      	cpsid	i
     9c0:	e7fe      	b.n	9c0 <prvNotifyQueueSetContainer+0x1c>
     9c2:	6ba1      	ldr	r1, [r4, #56]	; 0x38
     9c4:	2000      	movs	r0, #0
     9c6:	428b      	cmp	r3, r1
     9c8:	d801      	bhi.n	9ce <prvNotifyQueueSetContainer+0x2a>
     9ca:	b002      	add	sp, #8
     9cc:	bd10      	pop	{r4, pc}
     9ce:	a901      	add	r1, sp, #4
     9d0:	0020      	movs	r0, r4
     9d2:	4b06      	ldr	r3, [pc, #24]	; (9ec <prvNotifyQueueSetContainer+0x48>)
     9d4:	4798      	blx	r3
     9d6:	6a63      	ldr	r3, [r4, #36]	; 0x24
     9d8:	2000      	movs	r0, #0
     9da:	2b00      	cmp	r3, #0
     9dc:	d0f5      	beq.n	9ca <prvNotifyQueueSetContainer+0x26>
     9de:	0020      	movs	r0, r4
     9e0:	3024      	adds	r0, #36	; 0x24
     9e2:	4b03      	ldr	r3, [pc, #12]	; (9f0 <prvNotifyQueueSetContainer+0x4c>)
     9e4:	4798      	blx	r3
     9e6:	1e43      	subs	r3, r0, #1
     9e8:	4198      	sbcs	r0, r3
     9ea:	e7ee      	b.n	9ca <prvNotifyQueueSetContainer+0x26>
     9ec:	00000939 	.word	0x00000939
     9f0:	00001609 	.word	0x00001609

000009f4 <prvCopyDataFromQueue>:
     9f4:	b570      	push	{r4, r5, r6, lr}
     9f6:	000c      	movs	r4, r1
     9f8:	6801      	ldr	r1, [r0, #0]
     9fa:	2900      	cmp	r1, #0
     9fc:	d00b      	beq.n	a16 <prvCopyDataFromQueue+0x22>
     9fe:	6c02      	ldr	r2, [r0, #64]	; 0x40
     a00:	68c3      	ldr	r3, [r0, #12]
     a02:	189b      	adds	r3, r3, r2
     a04:	60c3      	str	r3, [r0, #12]
     a06:	6845      	ldr	r5, [r0, #4]
     a08:	42ab      	cmp	r3, r5
     a0a:	d300      	bcc.n	a0e <prvCopyDataFromQueue+0x1a>
     a0c:	60c1      	str	r1, [r0, #12]
     a0e:	68c1      	ldr	r1, [r0, #12]
     a10:	0020      	movs	r0, r4
     a12:	4b01      	ldr	r3, [pc, #4]	; (a18 <prvCopyDataFromQueue+0x24>)
     a14:	4798      	blx	r3
     a16:	bd70      	pop	{r4, r5, r6, pc}
     a18:	0000413d 	.word	0x0000413d

00000a1c <prvUnlockQueue>:
     a1c:	b5f8      	push	{r3, r4, r5, r6, r7, lr}
     a1e:	0004      	movs	r4, r0
     a20:	4b25      	ldr	r3, [pc, #148]	; (ab8 <prvUnlockQueue+0x9c>)
     a22:	4798      	blx	r3
     a24:	6ca3      	ldr	r3, [r4, #72]	; 0x48
     a26:	2b00      	cmp	r3, #0
     a28:	dd1e      	ble.n	a68 <prvUnlockQueue+0x4c>
     a2a:	4d24      	ldr	r5, [pc, #144]	; (abc <prvUnlockQueue+0xa0>)
     a2c:	4e24      	ldr	r6, [pc, #144]	; (ac0 <prvUnlockQueue+0xa4>)
     a2e:	e00d      	b.n	a4c <prvUnlockQueue+0x30>
     a30:	6a63      	ldr	r3, [r4, #36]	; 0x24
     a32:	2b00      	cmp	r3, #0
     a34:	d018      	beq.n	a68 <prvUnlockQueue+0x4c>
     a36:	0020      	movs	r0, r4
     a38:	3024      	adds	r0, #36	; 0x24
     a3a:	47b0      	blx	r6
     a3c:	2800      	cmp	r0, #0
     a3e:	d110      	bne.n	a62 <prvUnlockQueue+0x46>
     a40:	6ca3      	ldr	r3, [r4, #72]	; 0x48
     a42:	3b01      	subs	r3, #1
     a44:	64a3      	str	r3, [r4, #72]	; 0x48
     a46:	6ca3      	ldr	r3, [r4, #72]	; 0x48
     a48:	2b00      	cmp	r3, #0
     a4a:	dd0d      	ble.n	a68 <prvUnlockQueue+0x4c>
     a4c:	6ce3      	ldr	r3, [r4, #76]	; 0x4c
     a4e:	2b00      	cmp	r3, #0
     a50:	d0ee      	beq.n	a30 <prvUnlockQueue+0x14>
     a52:	2100      	movs	r1, #0
     a54:	0020      	movs	r0, r4
     a56:	47a8      	blx	r5
     a58:	2801      	cmp	r0, #1
     a5a:	d1f1      	bne.n	a40 <prvUnlockQueue+0x24>
     a5c:	4b19      	ldr	r3, [pc, #100]	; (ac4 <prvUnlockQueue+0xa8>)
     a5e:	4798      	blx	r3
     a60:	e7ee      	b.n	a40 <prvUnlockQueue+0x24>
     a62:	4b18      	ldr	r3, [pc, #96]	; (ac4 <prvUnlockQueue+0xa8>)
     a64:	4798      	blx	r3
     a66:	e7eb      	b.n	a40 <prvUnlockQueue+0x24>
     a68:	2301      	movs	r3, #1
     a6a:	425b      	negs	r3, r3
     a6c:	64a3      	str	r3, [r4, #72]	; 0x48
     a6e:	4b16      	ldr	r3, [pc, #88]	; (ac8 <prvUnlockQueue+0xac>)
     a70:	4798      	blx	r3
     a72:	4b11      	ldr	r3, [pc, #68]	; (ab8 <prvUnlockQueue+0x9c>)
     a74:	4798      	blx	r3
     a76:	6c63      	ldr	r3, [r4, #68]	; 0x44
     a78:	2b00      	cmp	r3, #0
     a7a:	dd16      	ble.n	aaa <prvUnlockQueue+0x8e>
     a7c:	6923      	ldr	r3, [r4, #16]
     a7e:	2b00      	cmp	r3, #0
     a80:	d013      	beq.n	aaa <prvUnlockQueue+0x8e>
     a82:	0025      	movs	r5, r4
     a84:	3510      	adds	r5, #16
     a86:	4f0e      	ldr	r7, [pc, #56]	; (ac0 <prvUnlockQueue+0xa4>)
     a88:	4e0e      	ldr	r6, [pc, #56]	; (ac4 <prvUnlockQueue+0xa8>)
     a8a:	e008      	b.n	a9e <prvUnlockQueue+0x82>
     a8c:	6c63      	ldr	r3, [r4, #68]	; 0x44
     a8e:	3b01      	subs	r3, #1
     a90:	6463      	str	r3, [r4, #68]	; 0x44
     a92:	6c63      	ldr	r3, [r4, #68]	; 0x44
     a94:	2b00      	cmp	r3, #0
     a96:	dd08      	ble.n	aaa <prvUnlockQueue+0x8e>
     a98:	6923      	ldr	r3, [r4, #16]
     a9a:	2b00      	cmp	r3, #0
     a9c:	d005      	beq.n	aaa <prvUnlockQueue+0x8e>
     a9e:	0028      	movs	r0, r5
     aa0:	47b8      	blx	r7
     aa2:	2800      	cmp	r0, #0
     aa4:	d0f2      	beq.n	a8c <prvUnlockQueue+0x70>
     aa6:	47b0      	blx	r6
     aa8:	e7f0      	b.n	a8c <prvUnlockQueue+0x70>
     aaa:	2301      	movs	r3, #1
     aac:	425b      	negs	r3, r3
     aae:	6463      	str	r3, [r4, #68]	; 0x44
     ab0:	4b05      	ldr	r3, [pc, #20]	; (ac8 <prvUnlockQueue+0xac>)
     ab2:	4798      	blx	r3
     ab4:	bdf8      	pop	{r3, r4, r5, r6, r7, pc}
     ab6:	46c0      	nop			; (mov r8, r8)
     ab8:	00000741 	.word	0x00000741
     abc:	000009a5 	.word	0x000009a5
     ac0:	00001609 	.word	0x00001609
     ac4:	0000171d 	.word	0x0000171d
     ac8:	00000759 	.word	0x00000759

00000acc <xQueueGenericReset>:
     acc:	b570      	push	{r4, r5, r6, lr}
     ace:	0004      	movs	r4, r0
     ad0:	000d      	movs	r5, r1
     ad2:	2800      	cmp	r0, #0
     ad4:	d020      	beq.n	b18 <xQueueGenericReset+0x4c>
     ad6:	4b17      	ldr	r3, [pc, #92]	; (b34 <xQueueGenericReset+0x68>)
     ad8:	4798      	blx	r3
     ada:	6822      	ldr	r2, [r4, #0]
     adc:	6c21      	ldr	r1, [r4, #64]	; 0x40
     ade:	6be3      	ldr	r3, [r4, #60]	; 0x3c
     ae0:	434b      	muls	r3, r1
     ae2:	18d0      	adds	r0, r2, r3
     ae4:	6060      	str	r0, [r4, #4]
     ae6:	2000      	movs	r0, #0
     ae8:	63a0      	str	r0, [r4, #56]	; 0x38
     aea:	60a2      	str	r2, [r4, #8]
     aec:	1a5b      	subs	r3, r3, r1
     aee:	18d3      	adds	r3, r2, r3
     af0:	60e3      	str	r3, [r4, #12]
     af2:	2301      	movs	r3, #1
     af4:	425b      	negs	r3, r3
     af6:	6463      	str	r3, [r4, #68]	; 0x44
     af8:	64a3      	str	r3, [r4, #72]	; 0x48
     afa:	2d00      	cmp	r5, #0
     afc:	d111      	bne.n	b22 <xQueueGenericReset+0x56>
     afe:	6923      	ldr	r3, [r4, #16]
     b00:	2b00      	cmp	r3, #0
     b02:	d005      	beq.n	b10 <xQueueGenericReset+0x44>
     b04:	0020      	movs	r0, r4
     b06:	3010      	adds	r0, #16
     b08:	4b0b      	ldr	r3, [pc, #44]	; (b38 <xQueueGenericReset+0x6c>)
     b0a:	4798      	blx	r3
     b0c:	2801      	cmp	r0, #1
     b0e:	d005      	beq.n	b1c <xQueueGenericReset+0x50>
     b10:	4b0a      	ldr	r3, [pc, #40]	; (b3c <xQueueGenericReset+0x70>)
     b12:	4798      	blx	r3
     b14:	2001      	movs	r0, #1
     b16:	bd70      	pop	{r4, r5, r6, pc}
     b18:	b672      	cpsid	i
     b1a:	e7fe      	b.n	b1a <xQueueGenericReset+0x4e>
     b1c:	4b08      	ldr	r3, [pc, #32]	; (b40 <xQueueGenericReset+0x74>)
     b1e:	4798      	blx	r3
     b20:	e7f6      	b.n	b10 <xQueueGenericReset+0x44>
     b22:	0020      	movs	r0, r4
     b24:	3010      	adds	r0, #16
     b26:	4d07      	ldr	r5, [pc, #28]	; (b44 <xQueueGenericReset+0x78>)
     b28:	47a8      	blx	r5
     b2a:	0020      	movs	r0, r4
     b2c:	3024      	adds	r0, #36	; 0x24
     b2e:	47a8      	blx	r5
     b30:	e7ee      	b.n	b10 <xQueueGenericReset+0x44>
     b32:	46c0      	nop			; (mov r8, r8)
     b34:	00000741 	.word	0x00000741
     b38:	00001609 	.word	0x00001609
     b3c:	00000759 	.word	0x00000759
     b40:	00000729 	.word	0x00000729
     b44:	000008a3 	.word	0x000008a3

00000b48 <xQueueGenericCreate>:
     b48:	b570      	push	{r4, r5, r6, lr}
     b4a:	0005      	movs	r5, r0
     b4c:	000e      	movs	r6, r1
     b4e:	2800      	cmp	r0, #0
     b50:	d019      	beq.n	b86 <xQueueGenericCreate+0x3e>
     b52:	2050      	movs	r0, #80	; 0x50
     b54:	4b0d      	ldr	r3, [pc, #52]	; (b8c <xQueueGenericCreate+0x44>)
     b56:	4798      	blx	r3
     b58:	1e04      	subs	r4, r0, #0
     b5a:	d014      	beq.n	b86 <xQueueGenericCreate+0x3e>
     b5c:	0030      	movs	r0, r6
     b5e:	4368      	muls	r0, r5
     b60:	3001      	adds	r0, #1
     b62:	4b0a      	ldr	r3, [pc, #40]	; (b8c <xQueueGenericCreate+0x44>)
     b64:	4798      	blx	r3
     b66:	6020      	str	r0, [r4, #0]
     b68:	2800      	cmp	r0, #0
     b6a:	d009      	beq.n	b80 <xQueueGenericCreate+0x38>
     b6c:	63e5      	str	r5, [r4, #60]	; 0x3c
     b6e:	6426      	str	r6, [r4, #64]	; 0x40
     b70:	2101      	movs	r1, #1
     b72:	0020      	movs	r0, r4
     b74:	4b06      	ldr	r3, [pc, #24]	; (b90 <xQueueGenericCreate+0x48>)
     b76:	4798      	blx	r3
     b78:	2300      	movs	r3, #0
     b7a:	64e3      	str	r3, [r4, #76]	; 0x4c
     b7c:	0020      	movs	r0, r4
     b7e:	bd70      	pop	{r4, r5, r6, pc}
     b80:	0020      	movs	r0, r4
     b82:	4b04      	ldr	r3, [pc, #16]	; (b94 <xQueueGenericCreate+0x4c>)
     b84:	4798      	blx	r3
     b86:	b672      	cpsid	i
     b88:	e7fe      	b.n	b88 <xQueueGenericCreate+0x40>
     b8a:	46c0      	nop			; (mov r8, r8)
     b8c:	0000082d 	.word	0x0000082d
     b90:	00000acd 	.word	0x00000acd
     b94:	00000899 	.word	0x00000899

00000b98 <xQueueGenericSend>:
     b98:	b5f0      	push	{r4, r5, r6, r7, lr}
     b9a:	46ce      	mov	lr, r9
     b9c:	b500      	push	{lr}
     b9e:	b084      	sub	sp, #16
     ba0:	0004      	movs	r4, r0
     ba2:	000f      	movs	r7, r1
     ba4:	9201      	str	r2, [sp, #4]
     ba6:	9300      	str	r3, [sp, #0]
     ba8:	2800      	cmp	r0, #0
     baa:	d004      	beq.n	bb6 <xQueueGenericSend+0x1e>
     bac:	2500      	movs	r5, #0
     bae:	2900      	cmp	r1, #0
     bb0:	d003      	beq.n	bba <xQueueGenericSend+0x22>
     bb2:	4e40      	ldr	r6, [pc, #256]	; (cb4 <xQueueGenericSend+0x11c>)
     bb4:	e040      	b.n	c38 <xQueueGenericSend+0xa0>
     bb6:	b672      	cpsid	i
     bb8:	e7fe      	b.n	bb8 <xQueueGenericSend+0x20>
     bba:	6c03      	ldr	r3, [r0, #64]	; 0x40
     bbc:	2b00      	cmp	r3, #0
     bbe:	d001      	beq.n	bc4 <xQueueGenericSend+0x2c>
     bc0:	b672      	cpsid	i
     bc2:	e7fe      	b.n	bc2 <xQueueGenericSend+0x2a>
     bc4:	2500      	movs	r5, #0
     bc6:	e7f4      	b.n	bb2 <xQueueGenericSend+0x1a>
     bc8:	9d00      	ldr	r5, [sp, #0]
     bca:	002a      	movs	r2, r5
     bcc:	0039      	movs	r1, r7
     bce:	0020      	movs	r0, r4
     bd0:	4b39      	ldr	r3, [pc, #228]	; (cb8 <xQueueGenericSend+0x120>)
     bd2:	4798      	blx	r3
     bd4:	6ce3      	ldr	r3, [r4, #76]	; 0x4c
     bd6:	2b00      	cmp	r3, #0
     bd8:	d00e      	beq.n	bf8 <xQueueGenericSend+0x60>
     bda:	0029      	movs	r1, r5
     bdc:	0020      	movs	r0, r4
     bde:	4b37      	ldr	r3, [pc, #220]	; (cbc <xQueueGenericSend+0x124>)
     be0:	4798      	blx	r3
     be2:	2801      	cmp	r0, #1
     be4:	d101      	bne.n	bea <xQueueGenericSend+0x52>
     be6:	4b36      	ldr	r3, [pc, #216]	; (cc0 <xQueueGenericSend+0x128>)
     be8:	4798      	blx	r3
     bea:	4b36      	ldr	r3, [pc, #216]	; (cc4 <xQueueGenericSend+0x12c>)
     bec:	4798      	blx	r3
     bee:	2001      	movs	r0, #1
     bf0:	b004      	add	sp, #16
     bf2:	bc04      	pop	{r2}
     bf4:	4691      	mov	r9, r2
     bf6:	bdf0      	pop	{r4, r5, r6, r7, pc}
     bf8:	6a63      	ldr	r3, [r4, #36]	; 0x24
     bfa:	2b00      	cmp	r3, #0
     bfc:	d0f5      	beq.n	bea <xQueueGenericSend+0x52>
     bfe:	0020      	movs	r0, r4
     c00:	3024      	adds	r0, #36	; 0x24
     c02:	4b31      	ldr	r3, [pc, #196]	; (cc8 <xQueueGenericSend+0x130>)
     c04:	4798      	blx	r3
     c06:	2801      	cmp	r0, #1
     c08:	d1ef      	bne.n	bea <xQueueGenericSend+0x52>
     c0a:	4b2d      	ldr	r3, [pc, #180]	; (cc0 <xQueueGenericSend+0x128>)
     c0c:	4798      	blx	r3
     c0e:	e7ec      	b.n	bea <xQueueGenericSend+0x52>
     c10:	4b2c      	ldr	r3, [pc, #176]	; (cc4 <xQueueGenericSend+0x12c>)
     c12:	4798      	blx	r3
     c14:	2000      	movs	r0, #0
     c16:	e7eb      	b.n	bf0 <xQueueGenericSend+0x58>
     c18:	a802      	add	r0, sp, #8
     c1a:	4b2c      	ldr	r3, [pc, #176]	; (ccc <xQueueGenericSend+0x134>)
     c1c:	4798      	blx	r3
     c1e:	e015      	b.n	c4c <xQueueGenericSend+0xb4>
     c20:	2300      	movs	r3, #0
     c22:	6463      	str	r3, [r4, #68]	; 0x44
     c24:	e01b      	b.n	c5e <xQueueGenericSend+0xc6>
     c26:	2300      	movs	r3, #0
     c28:	64a3      	str	r3, [r4, #72]	; 0x48
     c2a:	e01b      	b.n	c64 <xQueueGenericSend+0xcc>
     c2c:	0020      	movs	r0, r4
     c2e:	4b28      	ldr	r3, [pc, #160]	; (cd0 <xQueueGenericSend+0x138>)
     c30:	4798      	blx	r3
     c32:	4b28      	ldr	r3, [pc, #160]	; (cd4 <xQueueGenericSend+0x13c>)
     c34:	4798      	blx	r3
     c36:	2501      	movs	r5, #1
     c38:	47b0      	blx	r6
     c3a:	6ba3      	ldr	r3, [r4, #56]	; 0x38
     c3c:	6be2      	ldr	r2, [r4, #60]	; 0x3c
     c3e:	4293      	cmp	r3, r2
     c40:	d3c2      	bcc.n	bc8 <xQueueGenericSend+0x30>
     c42:	9b01      	ldr	r3, [sp, #4]
     c44:	2b00      	cmp	r3, #0
     c46:	d0e3      	beq.n	c10 <xQueueGenericSend+0x78>
     c48:	2d00      	cmp	r5, #0
     c4a:	d0e5      	beq.n	c18 <xQueueGenericSend+0x80>
     c4c:	4b1d      	ldr	r3, [pc, #116]	; (cc4 <xQueueGenericSend+0x12c>)
     c4e:	4798      	blx	r3
     c50:	4b21      	ldr	r3, [pc, #132]	; (cd8 <xQueueGenericSend+0x140>)
     c52:	4798      	blx	r3
     c54:	4b17      	ldr	r3, [pc, #92]	; (cb4 <xQueueGenericSend+0x11c>)
     c56:	4798      	blx	r3
     c58:	6c63      	ldr	r3, [r4, #68]	; 0x44
     c5a:	3301      	adds	r3, #1
     c5c:	d0e0      	beq.n	c20 <xQueueGenericSend+0x88>
     c5e:	6ca3      	ldr	r3, [r4, #72]	; 0x48
     c60:	3301      	adds	r3, #1
     c62:	d0e0      	beq.n	c26 <xQueueGenericSend+0x8e>
     c64:	4b17      	ldr	r3, [pc, #92]	; (cc4 <xQueueGenericSend+0x12c>)
     c66:	4798      	blx	r3
     c68:	a901      	add	r1, sp, #4
     c6a:	a802      	add	r0, sp, #8
     c6c:	4b1b      	ldr	r3, [pc, #108]	; (cdc <xQueueGenericSend+0x144>)
     c6e:	4798      	blx	r3
     c70:	2800      	cmp	r0, #0
     c72:	d117      	bne.n	ca4 <xQueueGenericSend+0x10c>
     c74:	4b0f      	ldr	r3, [pc, #60]	; (cb4 <xQueueGenericSend+0x11c>)
     c76:	4798      	blx	r3
     c78:	6ba3      	ldr	r3, [r4, #56]	; 0x38
     c7a:	4699      	mov	r9, r3
     c7c:	6be5      	ldr	r5, [r4, #60]	; 0x3c
     c7e:	4b11      	ldr	r3, [pc, #68]	; (cc4 <xQueueGenericSend+0x12c>)
     c80:	4798      	blx	r3
     c82:	45a9      	cmp	r9, r5
     c84:	d1d2      	bne.n	c2c <xQueueGenericSend+0x94>
     c86:	0020      	movs	r0, r4
     c88:	3010      	adds	r0, #16
     c8a:	9901      	ldr	r1, [sp, #4]
     c8c:	4b14      	ldr	r3, [pc, #80]	; (ce0 <xQueueGenericSend+0x148>)
     c8e:	4798      	blx	r3
     c90:	0020      	movs	r0, r4
     c92:	4b0f      	ldr	r3, [pc, #60]	; (cd0 <xQueueGenericSend+0x138>)
     c94:	4798      	blx	r3
     c96:	4b0f      	ldr	r3, [pc, #60]	; (cd4 <xQueueGenericSend+0x13c>)
     c98:	4798      	blx	r3
     c9a:	2800      	cmp	r0, #0
     c9c:	d1cb      	bne.n	c36 <xQueueGenericSend+0x9e>
     c9e:	4b08      	ldr	r3, [pc, #32]	; (cc0 <xQueueGenericSend+0x128>)
     ca0:	4798      	blx	r3
     ca2:	e7c8      	b.n	c36 <xQueueGenericSend+0x9e>
     ca4:	0020      	movs	r0, r4
     ca6:	4b0a      	ldr	r3, [pc, #40]	; (cd0 <xQueueGenericSend+0x138>)
     ca8:	4798      	blx	r3
     caa:	4b0a      	ldr	r3, [pc, #40]	; (cd4 <xQueueGenericSend+0x13c>)
     cac:	4798      	blx	r3
     cae:	2000      	movs	r0, #0
     cb0:	e79e      	b.n	bf0 <xQueueGenericSend+0x58>
     cb2:	46c0      	nop			; (mov r8, r8)
     cb4:	00000741 	.word	0x00000741
     cb8:	00000939 	.word	0x00000939
     cbc:	000009a5 	.word	0x000009a5
     cc0:	00000729 	.word	0x00000729
     cc4:	00000759 	.word	0x00000759
     cc8:	00001609 	.word	0x00001609
     ccc:	00001685 	.word	0x00001685
     cd0:	00000a1d 	.word	0x00000a1d
     cd4:	00001345 	.word	0x00001345
     cd8:	000011f9 	.word	0x000011f9
     cdc:	000016a5 	.word	0x000016a5
     ce0:	00001571 	.word	0x00001571

00000ce4 <xQueueGenericSendFromISR>:
     ce4:	b570      	push	{r4, r5, r6, lr}
     ce6:	0004      	movs	r4, r0
     ce8:	0015      	movs	r5, r2
     cea:	001e      	movs	r6, r3
     cec:	2800      	cmp	r0, #0
     cee:	d009      	beq.n	d04 <xQueueGenericSendFromISR+0x20>
     cf0:	2900      	cmp	r1, #0
     cf2:	d009      	beq.n	d08 <xQueueGenericSendFromISR+0x24>
     cf4:	b672      	cpsid	i
     cf6:	6ba3      	ldr	r3, [r4, #56]	; 0x38
     cf8:	2000      	movs	r0, #0
     cfa:	6be2      	ldr	r2, [r4, #60]	; 0x3c
     cfc:	4293      	cmp	r3, r2
     cfe:	d308      	bcc.n	d12 <xQueueGenericSendFromISR+0x2e>
     d00:	b662      	cpsie	i
     d02:	bd70      	pop	{r4, r5, r6, pc}
     d04:	b672      	cpsid	i
     d06:	e7fe      	b.n	d06 <xQueueGenericSendFromISR+0x22>
     d08:	6c03      	ldr	r3, [r0, #64]	; 0x40
     d0a:	2b00      	cmp	r3, #0
     d0c:	d0f2      	beq.n	cf4 <xQueueGenericSendFromISR+0x10>
     d0e:	b672      	cpsid	i
     d10:	e7fe      	b.n	d10 <xQueueGenericSendFromISR+0x2c>
     d12:	0032      	movs	r2, r6
     d14:	0020      	movs	r0, r4
     d16:	4b16      	ldr	r3, [pc, #88]	; (d70 <xQueueGenericSendFromISR+0x8c>)
     d18:	4798      	blx	r3
     d1a:	6ca3      	ldr	r3, [r4, #72]	; 0x48
     d1c:	3301      	adds	r3, #1
     d1e:	d11e      	bne.n	d5e <xQueueGenericSendFromISR+0x7a>
     d20:	6ce3      	ldr	r3, [r4, #76]	; 0x4c
     d22:	2b00      	cmp	r3, #0
     d24:	d00a      	beq.n	d3c <xQueueGenericSendFromISR+0x58>
     d26:	0031      	movs	r1, r6
     d28:	0020      	movs	r0, r4
     d2a:	4b12      	ldr	r3, [pc, #72]	; (d74 <xQueueGenericSendFromISR+0x90>)
     d2c:	4798      	blx	r3
     d2e:	2801      	cmp	r0, #1
     d30:	d11a      	bne.n	d68 <xQueueGenericSendFromISR+0x84>
     d32:	2d00      	cmp	r5, #0
     d34:	d0e4      	beq.n	d00 <xQueueGenericSendFromISR+0x1c>
     d36:	2301      	movs	r3, #1
     d38:	602b      	str	r3, [r5, #0]
     d3a:	e7e1      	b.n	d00 <xQueueGenericSendFromISR+0x1c>
     d3c:	6a63      	ldr	r3, [r4, #36]	; 0x24
     d3e:	2001      	movs	r0, #1
     d40:	2b00      	cmp	r3, #0
     d42:	d0dd      	beq.n	d00 <xQueueGenericSendFromISR+0x1c>
     d44:	0020      	movs	r0, r4
     d46:	3024      	adds	r0, #36	; 0x24
     d48:	4b0b      	ldr	r3, [pc, #44]	; (d78 <xQueueGenericSendFromISR+0x94>)
     d4a:	4798      	blx	r3
     d4c:	0003      	movs	r3, r0
     d4e:	2001      	movs	r0, #1
     d50:	2b00      	cmp	r3, #0
     d52:	d0d5      	beq.n	d00 <xQueueGenericSendFromISR+0x1c>
     d54:	2d00      	cmp	r5, #0
     d56:	d009      	beq.n	d6c <xQueueGenericSendFromISR+0x88>
     d58:	2301      	movs	r3, #1
     d5a:	602b      	str	r3, [r5, #0]
     d5c:	e7d0      	b.n	d00 <xQueueGenericSendFromISR+0x1c>
     d5e:	6ca3      	ldr	r3, [r4, #72]	; 0x48
     d60:	3301      	adds	r3, #1
     d62:	64a3      	str	r3, [r4, #72]	; 0x48
     d64:	2001      	movs	r0, #1
     d66:	e7cb      	b.n	d00 <xQueueGenericSendFromISR+0x1c>
     d68:	2001      	movs	r0, #1
     d6a:	e7c9      	b.n	d00 <xQueueGenericSendFromISR+0x1c>
     d6c:	2001      	movs	r0, #1
     d6e:	e7c7      	b.n	d00 <xQueueGenericSendFromISR+0x1c>
     d70:	00000939 	.word	0x00000939
     d74:	000009a5 	.word	0x000009a5
     d78:	00001609 	.word	0x00001609

00000d7c <xQueueGenericReceive>:
     d7c:	b5f0      	push	{r4, r5, r6, r7, lr}
     d7e:	46c6      	mov	lr, r8
     d80:	b500      	push	{lr}
     d82:	b084      	sub	sp, #16
     d84:	0004      	movs	r4, r0
     d86:	000e      	movs	r6, r1
     d88:	9201      	str	r2, [sp, #4]
     d8a:	001f      	movs	r7, r3
     d8c:	2800      	cmp	r0, #0
     d8e:	d005      	beq.n	d9c <xQueueGenericReceive+0x20>
     d90:	2500      	movs	r5, #0
     d92:	2900      	cmp	r1, #0
     d94:	d004      	beq.n	da0 <xQueueGenericReceive+0x24>
     d96:	4b4a      	ldr	r3, [pc, #296]	; (ec0 <xQueueGenericReceive+0x144>)
     d98:	4698      	mov	r8, r3
     d9a:	e053      	b.n	e44 <xQueueGenericReceive+0xc8>
     d9c:	b672      	cpsid	i
     d9e:	e7fe      	b.n	d9e <xQueueGenericReceive+0x22>
     da0:	6c03      	ldr	r3, [r0, #64]	; 0x40
     da2:	2b00      	cmp	r3, #0
     da4:	d001      	beq.n	daa <xQueueGenericReceive+0x2e>
     da6:	b672      	cpsid	i
     da8:	e7fe      	b.n	da8 <xQueueGenericReceive+0x2c>
     daa:	2500      	movs	r5, #0
     dac:	e7f3      	b.n	d96 <xQueueGenericReceive+0x1a>
     dae:	68e5      	ldr	r5, [r4, #12]
     db0:	0031      	movs	r1, r6
     db2:	0020      	movs	r0, r4
     db4:	4b43      	ldr	r3, [pc, #268]	; (ec4 <xQueueGenericReceive+0x148>)
     db6:	4798      	blx	r3
     db8:	2f00      	cmp	r7, #0
     dba:	d11a      	bne.n	df2 <xQueueGenericReceive+0x76>
     dbc:	6ba3      	ldr	r3, [r4, #56]	; 0x38
     dbe:	3b01      	subs	r3, #1
     dc0:	63a3      	str	r3, [r4, #56]	; 0x38
     dc2:	6823      	ldr	r3, [r4, #0]
     dc4:	2b00      	cmp	r3, #0
     dc6:	d102      	bne.n	dce <xQueueGenericReceive+0x52>
     dc8:	4b3f      	ldr	r3, [pc, #252]	; (ec8 <xQueueGenericReceive+0x14c>)
     dca:	4798      	blx	r3
     dcc:	6060      	str	r0, [r4, #4]
     dce:	6923      	ldr	r3, [r4, #16]
     dd0:	2b00      	cmp	r3, #0
     dd2:	d007      	beq.n	de4 <xQueueGenericReceive+0x68>
     dd4:	0020      	movs	r0, r4
     dd6:	3010      	adds	r0, #16
     dd8:	4b3c      	ldr	r3, [pc, #240]	; (ecc <xQueueGenericReceive+0x150>)
     dda:	4798      	blx	r3
     ddc:	2801      	cmp	r0, #1
     dde:	d101      	bne.n	de4 <xQueueGenericReceive+0x68>
     de0:	4b3b      	ldr	r3, [pc, #236]	; (ed0 <xQueueGenericReceive+0x154>)
     de2:	4798      	blx	r3
     de4:	4b3b      	ldr	r3, [pc, #236]	; (ed4 <xQueueGenericReceive+0x158>)
     de6:	4798      	blx	r3
     de8:	2001      	movs	r0, #1
     dea:	b004      	add	sp, #16
     dec:	bc04      	pop	{r2}
     dee:	4690      	mov	r8, r2
     df0:	bdf0      	pop	{r4, r5, r6, r7, pc}
     df2:	60e5      	str	r5, [r4, #12]
     df4:	6a63      	ldr	r3, [r4, #36]	; 0x24
     df6:	2b00      	cmp	r3, #0
     df8:	d0f4      	beq.n	de4 <xQueueGenericReceive+0x68>
     dfa:	0020      	movs	r0, r4
     dfc:	3024      	adds	r0, #36	; 0x24
     dfe:	4b33      	ldr	r3, [pc, #204]	; (ecc <xQueueGenericReceive+0x150>)
     e00:	4798      	blx	r3
     e02:	2800      	cmp	r0, #0
     e04:	d0ee      	beq.n	de4 <xQueueGenericReceive+0x68>
     e06:	4b32      	ldr	r3, [pc, #200]	; (ed0 <xQueueGenericReceive+0x154>)
     e08:	4798      	blx	r3
     e0a:	e7eb      	b.n	de4 <xQueueGenericReceive+0x68>
     e0c:	4b31      	ldr	r3, [pc, #196]	; (ed4 <xQueueGenericReceive+0x158>)
     e0e:	4798      	blx	r3
     e10:	2000      	movs	r0, #0
     e12:	e7ea      	b.n	dea <xQueueGenericReceive+0x6e>
     e14:	a802      	add	r0, sp, #8
     e16:	4b30      	ldr	r3, [pc, #192]	; (ed8 <xQueueGenericReceive+0x15c>)
     e18:	4798      	blx	r3
     e1a:	e01c      	b.n	e56 <xQueueGenericReceive+0xda>
     e1c:	2300      	movs	r3, #0
     e1e:	6463      	str	r3, [r4, #68]	; 0x44
     e20:	e022      	b.n	e68 <xQueueGenericReceive+0xec>
     e22:	2300      	movs	r3, #0
     e24:	64a3      	str	r3, [r4, #72]	; 0x48
     e26:	e022      	b.n	e6e <xQueueGenericReceive+0xf2>
     e28:	4b25      	ldr	r3, [pc, #148]	; (ec0 <xQueueGenericReceive+0x144>)
     e2a:	4798      	blx	r3
     e2c:	6860      	ldr	r0, [r4, #4]
     e2e:	4b2b      	ldr	r3, [pc, #172]	; (edc <xQueueGenericReceive+0x160>)
     e30:	4798      	blx	r3
     e32:	4b28      	ldr	r3, [pc, #160]	; (ed4 <xQueueGenericReceive+0x158>)
     e34:	4798      	blx	r3
     e36:	e02c      	b.n	e92 <xQueueGenericReceive+0x116>
     e38:	0020      	movs	r0, r4
     e3a:	4b29      	ldr	r3, [pc, #164]	; (ee0 <xQueueGenericReceive+0x164>)
     e3c:	4798      	blx	r3
     e3e:	4b29      	ldr	r3, [pc, #164]	; (ee4 <xQueueGenericReceive+0x168>)
     e40:	4798      	blx	r3
     e42:	2501      	movs	r5, #1
     e44:	47c0      	blx	r8
     e46:	6ba3      	ldr	r3, [r4, #56]	; 0x38
     e48:	2b00      	cmp	r3, #0
     e4a:	d1b0      	bne.n	dae <xQueueGenericReceive+0x32>
     e4c:	9b01      	ldr	r3, [sp, #4]
     e4e:	2b00      	cmp	r3, #0
     e50:	d0dc      	beq.n	e0c <xQueueGenericReceive+0x90>
     e52:	2d00      	cmp	r5, #0
     e54:	d0de      	beq.n	e14 <xQueueGenericReceive+0x98>
     e56:	4b1f      	ldr	r3, [pc, #124]	; (ed4 <xQueueGenericReceive+0x158>)
     e58:	4798      	blx	r3
     e5a:	4b23      	ldr	r3, [pc, #140]	; (ee8 <xQueueGenericReceive+0x16c>)
     e5c:	4798      	blx	r3
     e5e:	4b18      	ldr	r3, [pc, #96]	; (ec0 <xQueueGenericReceive+0x144>)
     e60:	4798      	blx	r3
     e62:	6c63      	ldr	r3, [r4, #68]	; 0x44
     e64:	3301      	adds	r3, #1
     e66:	d0d9      	beq.n	e1c <xQueueGenericReceive+0xa0>
     e68:	6ca3      	ldr	r3, [r4, #72]	; 0x48
     e6a:	3301      	adds	r3, #1
     e6c:	d0d9      	beq.n	e22 <xQueueGenericReceive+0xa6>
     e6e:	4b19      	ldr	r3, [pc, #100]	; (ed4 <xQueueGenericReceive+0x158>)
     e70:	4798      	blx	r3
     e72:	a901      	add	r1, sp, #4
     e74:	a802      	add	r0, sp, #8
     e76:	4b1d      	ldr	r3, [pc, #116]	; (eec <xQueueGenericReceive+0x170>)
     e78:	4798      	blx	r3
     e7a:	2800      	cmp	r0, #0
     e7c:	d118      	bne.n	eb0 <xQueueGenericReceive+0x134>
     e7e:	4b10      	ldr	r3, [pc, #64]	; (ec0 <xQueueGenericReceive+0x144>)
     e80:	4798      	blx	r3
     e82:	6ba5      	ldr	r5, [r4, #56]	; 0x38
     e84:	4b13      	ldr	r3, [pc, #76]	; (ed4 <xQueueGenericReceive+0x158>)
     e86:	4798      	blx	r3
     e88:	2d00      	cmp	r5, #0
     e8a:	d1d5      	bne.n	e38 <xQueueGenericReceive+0xbc>
     e8c:	6823      	ldr	r3, [r4, #0]
     e8e:	2b00      	cmp	r3, #0
     e90:	d0ca      	beq.n	e28 <xQueueGenericReceive+0xac>
     e92:	0020      	movs	r0, r4
     e94:	3024      	adds	r0, #36	; 0x24
     e96:	9901      	ldr	r1, [sp, #4]
     e98:	4b15      	ldr	r3, [pc, #84]	; (ef0 <xQueueGenericReceive+0x174>)
     e9a:	4798      	blx	r3
     e9c:	0020      	movs	r0, r4
     e9e:	4b10      	ldr	r3, [pc, #64]	; (ee0 <xQueueGenericReceive+0x164>)
     ea0:	4798      	blx	r3
     ea2:	4b10      	ldr	r3, [pc, #64]	; (ee4 <xQueueGenericReceive+0x168>)
     ea4:	4798      	blx	r3
     ea6:	2800      	cmp	r0, #0
     ea8:	d1cb      	bne.n	e42 <xQueueGenericReceive+0xc6>
     eaa:	4b09      	ldr	r3, [pc, #36]	; (ed0 <xQueueGenericReceive+0x154>)
     eac:	4798      	blx	r3
     eae:	e7c8      	b.n	e42 <xQueueGenericReceive+0xc6>
     eb0:	0020      	movs	r0, r4
     eb2:	4b0b      	ldr	r3, [pc, #44]	; (ee0 <xQueueGenericReceive+0x164>)
     eb4:	4798      	blx	r3
     eb6:	4b0b      	ldr	r3, [pc, #44]	; (ee4 <xQueueGenericReceive+0x168>)
     eb8:	4798      	blx	r3
     eba:	2000      	movs	r0, #0
     ebc:	e795      	b.n	dea <xQueueGenericReceive+0x6e>
     ebe:	46c0      	nop			; (mov r8, r8)
     ec0:	00000741 	.word	0x00000741
     ec4:	000009f5 	.word	0x000009f5
     ec8:	00001729 	.word	0x00001729
     ecc:	00001609 	.word	0x00001609
     ed0:	00000729 	.word	0x00000729
     ed4:	00000759 	.word	0x00000759
     ed8:	00001685 	.word	0x00001685
     edc:	00001755 	.word	0x00001755
     ee0:	00000a1d 	.word	0x00000a1d
     ee4:	00001345 	.word	0x00001345
     ee8:	000011f9 	.word	0x000011f9
     eec:	000016a5 	.word	0x000016a5
     ef0:	00001571 	.word	0x00001571

00000ef4 <vQueueWaitForMessageRestricted>:
     ef4:	b570      	push	{r4, r5, r6, lr}
     ef6:	0004      	movs	r4, r0
     ef8:	000d      	movs	r5, r1
     efa:	4b0e      	ldr	r3, [pc, #56]	; (f34 <vQueueWaitForMessageRestricted+0x40>)
     efc:	4798      	blx	r3
     efe:	6c63      	ldr	r3, [r4, #68]	; 0x44
     f00:	3301      	adds	r3, #1
     f02:	d00b      	beq.n	f1c <vQueueWaitForMessageRestricted+0x28>
     f04:	6ca3      	ldr	r3, [r4, #72]	; 0x48
     f06:	3301      	adds	r3, #1
     f08:	d00b      	beq.n	f22 <vQueueWaitForMessageRestricted+0x2e>
     f0a:	4b0b      	ldr	r3, [pc, #44]	; (f38 <vQueueWaitForMessageRestricted+0x44>)
     f0c:	4798      	blx	r3
     f0e:	6ba3      	ldr	r3, [r4, #56]	; 0x38
     f10:	2b00      	cmp	r3, #0
     f12:	d009      	beq.n	f28 <vQueueWaitForMessageRestricted+0x34>
     f14:	0020      	movs	r0, r4
     f16:	4b09      	ldr	r3, [pc, #36]	; (f3c <vQueueWaitForMessageRestricted+0x48>)
     f18:	4798      	blx	r3
     f1a:	bd70      	pop	{r4, r5, r6, pc}
     f1c:	2300      	movs	r3, #0
     f1e:	6463      	str	r3, [r4, #68]	; 0x44
     f20:	e7f0      	b.n	f04 <vQueueWaitForMessageRestricted+0x10>
     f22:	2300      	movs	r3, #0
     f24:	64a3      	str	r3, [r4, #72]	; 0x48
     f26:	e7f0      	b.n	f0a <vQueueWaitForMessageRestricted+0x16>
     f28:	0020      	movs	r0, r4
     f2a:	3024      	adds	r0, #36	; 0x24
     f2c:	0029      	movs	r1, r5
     f2e:	4b04      	ldr	r3, [pc, #16]	; (f40 <vQueueWaitForMessageRestricted+0x4c>)
     f30:	4798      	blx	r3
     f32:	e7ef      	b.n	f14 <vQueueWaitForMessageRestricted+0x20>
     f34:	00000741 	.word	0x00000741
     f38:	00000759 	.word	0x00000759
     f3c:	00000a1d 	.word	0x00000a1d
     f40:	000015c9 	.word	0x000015c9

00000f44 <prvAddCurrentTaskToDelayedList>:
     f44:	b510      	push	{r4, lr}
     f46:	0004      	movs	r4, r0
     f48:	4b0e      	ldr	r3, [pc, #56]	; (f84 <prvAddCurrentTaskToDelayedList+0x40>)
     f4a:	681b      	ldr	r3, [r3, #0]
     f4c:	6058      	str	r0, [r3, #4]
     f4e:	4b0e      	ldr	r3, [pc, #56]	; (f88 <prvAddCurrentTaskToDelayedList+0x44>)
     f50:	681b      	ldr	r3, [r3, #0]
     f52:	4298      	cmp	r0, r3
     f54:	d30d      	bcc.n	f72 <prvAddCurrentTaskToDelayedList+0x2e>
     f56:	4b0d      	ldr	r3, [pc, #52]	; (f8c <prvAddCurrentTaskToDelayedList+0x48>)
     f58:	6818      	ldr	r0, [r3, #0]
     f5a:	4b0a      	ldr	r3, [pc, #40]	; (f84 <prvAddCurrentTaskToDelayedList+0x40>)
     f5c:	6819      	ldr	r1, [r3, #0]
     f5e:	3104      	adds	r1, #4
     f60:	4b0b      	ldr	r3, [pc, #44]	; (f90 <prvAddCurrentTaskToDelayedList+0x4c>)
     f62:	4798      	blx	r3
     f64:	4b0b      	ldr	r3, [pc, #44]	; (f94 <prvAddCurrentTaskToDelayedList+0x50>)
     f66:	681b      	ldr	r3, [r3, #0]
     f68:	429c      	cmp	r4, r3
     f6a:	d209      	bcs.n	f80 <prvAddCurrentTaskToDelayedList+0x3c>
     f6c:	4b09      	ldr	r3, [pc, #36]	; (f94 <prvAddCurrentTaskToDelayedList+0x50>)
     f6e:	601c      	str	r4, [r3, #0]
     f70:	e006      	b.n	f80 <prvAddCurrentTaskToDelayedList+0x3c>
     f72:	4b09      	ldr	r3, [pc, #36]	; (f98 <prvAddCurrentTaskToDelayedList+0x54>)
     f74:	6818      	ldr	r0, [r3, #0]
     f76:	4b03      	ldr	r3, [pc, #12]	; (f84 <prvAddCurrentTaskToDelayedList+0x40>)
     f78:	6819      	ldr	r1, [r3, #0]
     f7a:	3104      	adds	r1, #4
     f7c:	4b04      	ldr	r3, [pc, #16]	; (f90 <prvAddCurrentTaskToDelayedList+0x4c>)
     f7e:	4798      	blx	r3
     f80:	bd10      	pop	{r4, pc}
     f82:	46c0      	nop			; (mov r8, r8)
     f84:	20003ac8 	.word	0x20003ac8
     f88:	20003bc4 	.word	0x20003bc4
     f8c:	20003acc 	.word	0x20003acc
     f90:	000008db 	.word	0x000008db
     f94:	20000004 	.word	0x20000004
     f98:	20003ad0 	.word	0x20003ad0

00000f9c <xTaskGenericCreate>:
     f9c:	b5f0      	push	{r4, r5, r6, r7, lr}
     f9e:	46d6      	mov	lr, sl
     fa0:	464f      	mov	r7, r9
     fa2:	b580      	push	{r7, lr}
     fa4:	b083      	sub	sp, #12
     fa6:	0005      	movs	r5, r0
     fa8:	9100      	str	r1, [sp, #0]
     faa:	0016      	movs	r6, r2
     fac:	9301      	str	r3, [sp, #4]
     fae:	9b0a      	ldr	r3, [sp, #40]	; 0x28
     fb0:	4699      	mov	r9, r3
     fb2:	9f0c      	ldr	r7, [sp, #48]	; 0x30
     fb4:	2800      	cmp	r0, #0
     fb6:	d003      	beq.n	fc0 <xTaskGenericCreate+0x24>
     fb8:	2b04      	cmp	r3, #4
     fba:	d903      	bls.n	fc4 <xTaskGenericCreate+0x28>
     fbc:	b672      	cpsid	i
     fbe:	e7fe      	b.n	fbe <xTaskGenericCreate+0x22>
     fc0:	b672      	cpsid	i
     fc2:	e7fe      	b.n	fc2 <xTaskGenericCreate+0x26>
     fc4:	2040      	movs	r0, #64	; 0x40
     fc6:	4b5a      	ldr	r3, [pc, #360]	; (1130 <xTaskGenericCreate+0x194>)
     fc8:	4798      	blx	r3
     fca:	1e04      	subs	r4, r0, #0
     fcc:	d00c      	beq.n	fe8 <xTaskGenericCreate+0x4c>
     fce:	2f00      	cmp	r7, #0
     fd0:	d000      	beq.n	fd4 <xTaskGenericCreate+0x38>
     fd2:	e078      	b.n	10c6 <xTaskGenericCreate+0x12a>
     fd4:	00b0      	lsls	r0, r6, #2
     fd6:	4b56      	ldr	r3, [pc, #344]	; (1130 <xTaskGenericCreate+0x194>)
     fd8:	4798      	blx	r3
     fda:	1e07      	subs	r7, r0, #0
     fdc:	6320      	str	r0, [r4, #48]	; 0x30
     fde:	d000      	beq.n	fe2 <xTaskGenericCreate+0x46>
     fe0:	e072      	b.n	10c8 <xTaskGenericCreate+0x12c>
     fe2:	0020      	movs	r0, r4
     fe4:	4b53      	ldr	r3, [pc, #332]	; (1134 <xTaskGenericCreate+0x198>)
     fe6:	4798      	blx	r3
     fe8:	2001      	movs	r0, #1
     fea:	4240      	negs	r0, r0
     fec:	e05a      	b.n	10a4 <xTaskGenericCreate+0x108>
     fee:	9b0b      	ldr	r3, [sp, #44]	; 0x2c
     ff0:	2b00      	cmp	r3, #0
     ff2:	d000      	beq.n	ff6 <xTaskGenericCreate+0x5a>
     ff4:	601c      	str	r4, [r3, #0]
     ff6:	4b50      	ldr	r3, [pc, #320]	; (1138 <xTaskGenericCreate+0x19c>)
     ff8:	4798      	blx	r3
     ffa:	4a50      	ldr	r2, [pc, #320]	; (113c <xTaskGenericCreate+0x1a0>)
     ffc:	6813      	ldr	r3, [r2, #0]
     ffe:	3301      	adds	r3, #1
    1000:	6013      	str	r3, [r2, #0]
    1002:	4b4f      	ldr	r3, [pc, #316]	; (1140 <xTaskGenericCreate+0x1a4>)
    1004:	681b      	ldr	r3, [r3, #0]
    1006:	2b00      	cmp	r3, #0
    1008:	d151      	bne.n	10ae <xTaskGenericCreate+0x112>
    100a:	4b4d      	ldr	r3, [pc, #308]	; (1140 <xTaskGenericCreate+0x1a4>)
    100c:	601c      	str	r4, [r3, #0]
    100e:	6813      	ldr	r3, [r2, #0]
    1010:	2b01      	cmp	r3, #1
    1012:	d11f      	bne.n	1054 <xTaskGenericCreate+0xb8>
    1014:	4e4b      	ldr	r6, [pc, #300]	; (1144 <xTaskGenericCreate+0x1a8>)
    1016:	0030      	movs	r0, r6
    1018:	4d4b      	ldr	r5, [pc, #300]	; (1148 <xTaskGenericCreate+0x1ac>)
    101a:	47a8      	blx	r5
    101c:	0030      	movs	r0, r6
    101e:	3014      	adds	r0, #20
    1020:	47a8      	blx	r5
    1022:	0030      	movs	r0, r6
    1024:	3028      	adds	r0, #40	; 0x28
    1026:	47a8      	blx	r5
    1028:	0030      	movs	r0, r6
    102a:	303c      	adds	r0, #60	; 0x3c
    102c:	47a8      	blx	r5
    102e:	0030      	movs	r0, r6
    1030:	3050      	adds	r0, #80	; 0x50
    1032:	47a8      	blx	r5
    1034:	4f45      	ldr	r7, [pc, #276]	; (114c <xTaskGenericCreate+0x1b0>)
    1036:	0038      	movs	r0, r7
    1038:	47a8      	blx	r5
    103a:	4e45      	ldr	r6, [pc, #276]	; (1150 <xTaskGenericCreate+0x1b4>)
    103c:	0030      	movs	r0, r6
    103e:	47a8      	blx	r5
    1040:	4844      	ldr	r0, [pc, #272]	; (1154 <xTaskGenericCreate+0x1b8>)
    1042:	47a8      	blx	r5
    1044:	4844      	ldr	r0, [pc, #272]	; (1158 <xTaskGenericCreate+0x1bc>)
    1046:	47a8      	blx	r5
    1048:	4844      	ldr	r0, [pc, #272]	; (115c <xTaskGenericCreate+0x1c0>)
    104a:	47a8      	blx	r5
    104c:	4b44      	ldr	r3, [pc, #272]	; (1160 <xTaskGenericCreate+0x1c4>)
    104e:	601f      	str	r7, [r3, #0]
    1050:	4b44      	ldr	r3, [pc, #272]	; (1164 <xTaskGenericCreate+0x1c8>)
    1052:	601e      	str	r6, [r3, #0]
    1054:	6ae3      	ldr	r3, [r4, #44]	; 0x2c
    1056:	4a44      	ldr	r2, [pc, #272]	; (1168 <xTaskGenericCreate+0x1cc>)
    1058:	6812      	ldr	r2, [r2, #0]
    105a:	4293      	cmp	r3, r2
    105c:	d901      	bls.n	1062 <xTaskGenericCreate+0xc6>
    105e:	4a42      	ldr	r2, [pc, #264]	; (1168 <xTaskGenericCreate+0x1cc>)
    1060:	6013      	str	r3, [r2, #0]
    1062:	4942      	ldr	r1, [pc, #264]	; (116c <xTaskGenericCreate+0x1d0>)
    1064:	680a      	ldr	r2, [r1, #0]
    1066:	3201      	adds	r2, #1
    1068:	600a      	str	r2, [r1, #0]
    106a:	4a41      	ldr	r2, [pc, #260]	; (1170 <xTaskGenericCreate+0x1d4>)
    106c:	6812      	ldr	r2, [r2, #0]
    106e:	4293      	cmp	r3, r2
    1070:	d901      	bls.n	1076 <xTaskGenericCreate+0xda>
    1072:	4a3f      	ldr	r2, [pc, #252]	; (1170 <xTaskGenericCreate+0x1d4>)
    1074:	6013      	str	r3, [r2, #0]
    1076:	009a      	lsls	r2, r3, #2
    1078:	18d3      	adds	r3, r2, r3
    107a:	009b      	lsls	r3, r3, #2
    107c:	4831      	ldr	r0, [pc, #196]	; (1144 <xTaskGenericCreate+0x1a8>)
    107e:	18c0      	adds	r0, r0, r3
    1080:	9900      	ldr	r1, [sp, #0]
    1082:	4b3c      	ldr	r3, [pc, #240]	; (1174 <xTaskGenericCreate+0x1d8>)
    1084:	4798      	blx	r3
    1086:	4b3c      	ldr	r3, [pc, #240]	; (1178 <xTaskGenericCreate+0x1dc>)
    1088:	4798      	blx	r3
    108a:	4b3c      	ldr	r3, [pc, #240]	; (117c <xTaskGenericCreate+0x1e0>)
    108c:	681b      	ldr	r3, [r3, #0]
    108e:	2001      	movs	r0, #1
    1090:	2b00      	cmp	r3, #0
    1092:	d007      	beq.n	10a4 <xTaskGenericCreate+0x108>
    1094:	4b2a      	ldr	r3, [pc, #168]	; (1140 <xTaskGenericCreate+0x1a4>)
    1096:	681b      	ldr	r3, [r3, #0]
    1098:	6adb      	ldr	r3, [r3, #44]	; 0x2c
    109a:	4599      	cmp	r9, r3
    109c:	d902      	bls.n	10a4 <xTaskGenericCreate+0x108>
    109e:	4b38      	ldr	r3, [pc, #224]	; (1180 <xTaskGenericCreate+0x1e4>)
    10a0:	4798      	blx	r3
    10a2:	2001      	movs	r0, #1
    10a4:	b003      	add	sp, #12
    10a6:	bc0c      	pop	{r2, r3}
    10a8:	4691      	mov	r9, r2
    10aa:	469a      	mov	sl, r3
    10ac:	bdf0      	pop	{r4, r5, r6, r7, pc}
    10ae:	4b33      	ldr	r3, [pc, #204]	; (117c <xTaskGenericCreate+0x1e0>)
    10b0:	681b      	ldr	r3, [r3, #0]
    10b2:	2b00      	cmp	r3, #0
    10b4:	d1ce      	bne.n	1054 <xTaskGenericCreate+0xb8>
    10b6:	4b22      	ldr	r3, [pc, #136]	; (1140 <xTaskGenericCreate+0x1a4>)
    10b8:	681b      	ldr	r3, [r3, #0]
    10ba:	6adb      	ldr	r3, [r3, #44]	; 0x2c
    10bc:	4599      	cmp	r9, r3
    10be:	d3c9      	bcc.n	1054 <xTaskGenericCreate+0xb8>
    10c0:	4b1f      	ldr	r3, [pc, #124]	; (1140 <xTaskGenericCreate+0x1a4>)
    10c2:	601c      	str	r4, [r3, #0]
    10c4:	e7c6      	b.n	1054 <xTaskGenericCreate+0xb8>
    10c6:	6307      	str	r7, [r0, #48]	; 0x30
    10c8:	00b2      	lsls	r2, r6, #2
    10ca:	21a5      	movs	r1, #165	; 0xa5
    10cc:	0038      	movs	r0, r7
    10ce:	4b2d      	ldr	r3, [pc, #180]	; (1184 <xTaskGenericCreate+0x1e8>)
    10d0:	4798      	blx	r3
    10d2:	4b2d      	ldr	r3, [pc, #180]	; (1188 <xTaskGenericCreate+0x1ec>)
    10d4:	18f3      	adds	r3, r6, r3
    10d6:	009b      	lsls	r3, r3, #2
    10d8:	6b22      	ldr	r2, [r4, #48]	; 0x30
    10da:	4694      	mov	ip, r2
    10dc:	4463      	add	r3, ip
    10de:	2607      	movs	r6, #7
    10e0:	43b3      	bics	r3, r6
    10e2:	469a      	mov	sl, r3
    10e4:	0020      	movs	r0, r4
    10e6:	3034      	adds	r0, #52	; 0x34
    10e8:	2208      	movs	r2, #8
    10ea:	9900      	ldr	r1, [sp, #0]
    10ec:	4b27      	ldr	r3, [pc, #156]	; (118c <xTaskGenericCreate+0x1f0>)
    10ee:	4798      	blx	r3
    10f0:	2200      	movs	r2, #0
    10f2:	233b      	movs	r3, #59	; 0x3b
    10f4:	54e2      	strb	r2, [r4, r3]
    10f6:	464b      	mov	r3, r9
    10f8:	62e3      	str	r3, [r4, #44]	; 0x2c
    10fa:	63e3      	str	r3, [r4, #60]	; 0x3c
    10fc:	1d23      	adds	r3, r4, #4
    10fe:	9300      	str	r3, [sp, #0]
    1100:	0018      	movs	r0, r3
    1102:	4f23      	ldr	r7, [pc, #140]	; (1190 <xTaskGenericCreate+0x1f4>)
    1104:	47b8      	blx	r7
    1106:	0020      	movs	r0, r4
    1108:	3018      	adds	r0, #24
    110a:	47b8      	blx	r7
    110c:	6124      	str	r4, [r4, #16]
    110e:	2305      	movs	r3, #5
    1110:	464a      	mov	r2, r9
    1112:	1a9b      	subs	r3, r3, r2
    1114:	61a3      	str	r3, [r4, #24]
    1116:	6264      	str	r4, [r4, #36]	; 0x24
    1118:	9a01      	ldr	r2, [sp, #4]
    111a:	0029      	movs	r1, r5
    111c:	4650      	mov	r0, sl
    111e:	4b1d      	ldr	r3, [pc, #116]	; (1194 <xTaskGenericCreate+0x1f8>)
    1120:	4798      	blx	r3
    1122:	6020      	str	r0, [r4, #0]
    1124:	4230      	tst	r0, r6
    1126:	d100      	bne.n	112a <xTaskGenericCreate+0x18e>
    1128:	e761      	b.n	fee <xTaskGenericCreate+0x52>
    112a:	b672      	cpsid	i
    112c:	e7fe      	b.n	112c <xTaskGenericCreate+0x190>
    112e:	46c0      	nop			; (mov r8, r8)
    1130:	0000082d 	.word	0x0000082d
    1134:	00000899 	.word	0x00000899
    1138:	00000741 	.word	0x00000741
    113c:	20003b38 	.word	0x20003b38
    1140:	20003ac8 	.word	0x20003ac8
    1144:	20003ad4 	.word	0x20003ad4
    1148:	000008a3 	.word	0x000008a3
    114c:	20003b54 	.word	0x20003b54
    1150:	20003b68 	.word	0x20003b68
    1154:	20003b84 	.word	0x20003b84
    1158:	20003bb0 	.word	0x20003bb0
    115c:	20003b9c 	.word	0x20003b9c
    1160:	20003acc 	.word	0x20003acc
    1164:	20003ad0 	.word	0x20003ad0
    1168:	20003b50 	.word	0x20003b50
    116c:	20003b44 	.word	0x20003b44
    1170:	20003b4c 	.word	0x20003b4c
    1174:	000008bf 	.word	0x000008bf
    1178:	00000759 	.word	0x00000759
    117c:	20003b98 	.word	0x20003b98
    1180:	00000729 	.word	0x00000729
    1184:	0000414f 	.word	0x0000414f
    1188:	3fffffff 	.word	0x3fffffff
    118c:	0000415f 	.word	0x0000415f
    1190:	000008b9 	.word	0x000008b9
    1194:	000006e9 	.word	0x000006e9

00001198 <vTaskStartScheduler>:
    1198:	b510      	push	{r4, lr}
    119a:	b084      	sub	sp, #16
    119c:	2300      	movs	r3, #0
    119e:	9303      	str	r3, [sp, #12]
    11a0:	9302      	str	r3, [sp, #8]
    11a2:	9301      	str	r3, [sp, #4]
    11a4:	9300      	str	r3, [sp, #0]
    11a6:	2264      	movs	r2, #100	; 0x64
    11a8:	490c      	ldr	r1, [pc, #48]	; (11dc <vTaskStartScheduler+0x44>)
    11aa:	480d      	ldr	r0, [pc, #52]	; (11e0 <vTaskStartScheduler+0x48>)
    11ac:	4c0d      	ldr	r4, [pc, #52]	; (11e4 <vTaskStartScheduler+0x4c>)
    11ae:	47a0      	blx	r4
    11b0:	2801      	cmp	r0, #1
    11b2:	d003      	beq.n	11bc <vTaskStartScheduler+0x24>
    11b4:	2800      	cmp	r0, #0
    11b6:	d10e      	bne.n	11d6 <vTaskStartScheduler+0x3e>
    11b8:	b672      	cpsid	i
    11ba:	e7fe      	b.n	11ba <vTaskStartScheduler+0x22>
    11bc:	4b0a      	ldr	r3, [pc, #40]	; (11e8 <vTaskStartScheduler+0x50>)
    11be:	4798      	blx	r3
    11c0:	2801      	cmp	r0, #1
    11c2:	d1f7      	bne.n	11b4 <vTaskStartScheduler+0x1c>
    11c4:	b672      	cpsid	i
    11c6:	2201      	movs	r2, #1
    11c8:	4b08      	ldr	r3, [pc, #32]	; (11ec <vTaskStartScheduler+0x54>)
    11ca:	601a      	str	r2, [r3, #0]
    11cc:	2200      	movs	r2, #0
    11ce:	4b08      	ldr	r3, [pc, #32]	; (11f0 <vTaskStartScheduler+0x58>)
    11d0:	601a      	str	r2, [r3, #0]
    11d2:	4b08      	ldr	r3, [pc, #32]	; (11f4 <vTaskStartScheduler+0x5c>)
    11d4:	4798      	blx	r3
    11d6:	b004      	add	sp, #16
    11d8:	bd10      	pop	{r4, pc}
    11da:	46c0      	nop			; (mov r8, r8)
    11dc:	00004188 	.word	0x00004188
    11e0:	00001439 	.word	0x00001439
    11e4:	00000f9d 	.word	0x00000f9d
    11e8:	000018c9 	.word	0x000018c9
    11ec:	20003b98 	.word	0x20003b98
    11f0:	20003bc4 	.word	0x20003bc4
    11f4:	000007f1 	.word	0x000007f1

000011f8 <vTaskSuspendAll>:
    11f8:	4a02      	ldr	r2, [pc, #8]	; (1204 <vTaskSuspendAll+0xc>)
    11fa:	6813      	ldr	r3, [r2, #0]
    11fc:	3301      	adds	r3, #1
    11fe:	6013      	str	r3, [r2, #0]
    1200:	4770      	bx	lr
    1202:	46c0      	nop			; (mov r8, r8)
    1204:	20003b40 	.word	0x20003b40

00001208 <xTaskGetTickCount>:
    1208:	b510      	push	{r4, lr}
    120a:	4b04      	ldr	r3, [pc, #16]	; (121c <xTaskGetTickCount+0x14>)
    120c:	4798      	blx	r3
    120e:	4b04      	ldr	r3, [pc, #16]	; (1220 <xTaskGetTickCount+0x18>)
    1210:	681c      	ldr	r4, [r3, #0]
    1212:	4b04      	ldr	r3, [pc, #16]	; (1224 <xTaskGetTickCount+0x1c>)
    1214:	4798      	blx	r3
    1216:	0020      	movs	r0, r4
    1218:	bd10      	pop	{r4, pc}
    121a:	46c0      	nop			; (mov r8, r8)
    121c:	00000741 	.word	0x00000741
    1220:	20003bc4 	.word	0x20003bc4
    1224:	00000759 	.word	0x00000759

00001228 <vTaskIncrementTick>:
    1228:	b5f8      	push	{r3, r4, r5, r6, r7, lr}
    122a:	4b3b      	ldr	r3, [pc, #236]	; (1318 <vTaskIncrementTick+0xf0>)
    122c:	681b      	ldr	r3, [r3, #0]
    122e:	2b00      	cmp	r3, #0
    1230:	d16d      	bne.n	130e <vTaskIncrementTick+0xe6>
    1232:	4b3a      	ldr	r3, [pc, #232]	; (131c <vTaskIncrementTick+0xf4>)
    1234:	681a      	ldr	r2, [r3, #0]
    1236:	3201      	adds	r2, #1
    1238:	601a      	str	r2, [r3, #0]
    123a:	681b      	ldr	r3, [r3, #0]
    123c:	2b00      	cmp	r3, #0
    123e:	d118      	bne.n	1272 <vTaskIncrementTick+0x4a>
    1240:	4b37      	ldr	r3, [pc, #220]	; (1320 <vTaskIncrementTick+0xf8>)
    1242:	681b      	ldr	r3, [r3, #0]
    1244:	681b      	ldr	r3, [r3, #0]
    1246:	2b00      	cmp	r3, #0
    1248:	d001      	beq.n	124e <vTaskIncrementTick+0x26>
    124a:	b672      	cpsid	i
    124c:	e7fe      	b.n	124c <vTaskIncrementTick+0x24>
    124e:	4b34      	ldr	r3, [pc, #208]	; (1320 <vTaskIncrementTick+0xf8>)
    1250:	6819      	ldr	r1, [r3, #0]
    1252:	4a34      	ldr	r2, [pc, #208]	; (1324 <vTaskIncrementTick+0xfc>)
    1254:	6810      	ldr	r0, [r2, #0]
    1256:	6018      	str	r0, [r3, #0]
    1258:	6011      	str	r1, [r2, #0]
    125a:	4933      	ldr	r1, [pc, #204]	; (1328 <vTaskIncrementTick+0x100>)
    125c:	680a      	ldr	r2, [r1, #0]
    125e:	3201      	adds	r2, #1
    1260:	600a      	str	r2, [r1, #0]
    1262:	681b      	ldr	r3, [r3, #0]
    1264:	681b      	ldr	r3, [r3, #0]
    1266:	2b00      	cmp	r3, #0
    1268:	d11a      	bne.n	12a0 <vTaskIncrementTick+0x78>
    126a:	2201      	movs	r2, #1
    126c:	4252      	negs	r2, r2
    126e:	4b2f      	ldr	r3, [pc, #188]	; (132c <vTaskIncrementTick+0x104>)
    1270:	601a      	str	r2, [r3, #0]
    1272:	4b2a      	ldr	r3, [pc, #168]	; (131c <vTaskIncrementTick+0xf4>)
    1274:	681a      	ldr	r2, [r3, #0]
    1276:	4b2d      	ldr	r3, [pc, #180]	; (132c <vTaskIncrementTick+0x104>)
    1278:	681b      	ldr	r3, [r3, #0]
    127a:	429a      	cmp	r2, r3
    127c:	d34b      	bcc.n	1316 <vTaskIncrementTick+0xee>
    127e:	4b28      	ldr	r3, [pc, #160]	; (1320 <vTaskIncrementTick+0xf8>)
    1280:	681b      	ldr	r3, [r3, #0]
    1282:	681b      	ldr	r3, [r3, #0]
    1284:	2b00      	cmp	r3, #0
    1286:	d013      	beq.n	12b0 <vTaskIncrementTick+0x88>
    1288:	4b25      	ldr	r3, [pc, #148]	; (1320 <vTaskIncrementTick+0xf8>)
    128a:	681b      	ldr	r3, [r3, #0]
    128c:	68db      	ldr	r3, [r3, #12]
    128e:	68dc      	ldr	r4, [r3, #12]
    1290:	6863      	ldr	r3, [r4, #4]
    1292:	4a22      	ldr	r2, [pc, #136]	; (131c <vTaskIncrementTick+0xf4>)
    1294:	6812      	ldr	r2, [r2, #0]
    1296:	4293      	cmp	r3, r2
    1298:	d80f      	bhi.n	12ba <vTaskIncrementTick+0x92>
    129a:	4f25      	ldr	r7, [pc, #148]	; (1330 <vTaskIncrementTick+0x108>)
    129c:	4e25      	ldr	r6, [pc, #148]	; (1334 <vTaskIncrementTick+0x10c>)
    129e:	e025      	b.n	12ec <vTaskIncrementTick+0xc4>
    12a0:	4b1f      	ldr	r3, [pc, #124]	; (1320 <vTaskIncrementTick+0xf8>)
    12a2:	681b      	ldr	r3, [r3, #0]
    12a4:	68db      	ldr	r3, [r3, #12]
    12a6:	68db      	ldr	r3, [r3, #12]
    12a8:	685a      	ldr	r2, [r3, #4]
    12aa:	4b20      	ldr	r3, [pc, #128]	; (132c <vTaskIncrementTick+0x104>)
    12ac:	601a      	str	r2, [r3, #0]
    12ae:	e7e0      	b.n	1272 <vTaskIncrementTick+0x4a>
    12b0:	2201      	movs	r2, #1
    12b2:	4252      	negs	r2, r2
    12b4:	4b1d      	ldr	r3, [pc, #116]	; (132c <vTaskIncrementTick+0x104>)
    12b6:	601a      	str	r2, [r3, #0]
    12b8:	e02d      	b.n	1316 <vTaskIncrementTick+0xee>
    12ba:	4a1c      	ldr	r2, [pc, #112]	; (132c <vTaskIncrementTick+0x104>)
    12bc:	6013      	str	r3, [r2, #0]
    12be:	e02a      	b.n	1316 <vTaskIncrementTick+0xee>
    12c0:	0098      	lsls	r0, r3, #2
    12c2:	18c0      	adds	r0, r0, r3
    12c4:	0080      	lsls	r0, r0, #2
    12c6:	4b1c      	ldr	r3, [pc, #112]	; (1338 <vTaskIncrementTick+0x110>)
    12c8:	1818      	adds	r0, r3, r0
    12ca:	0029      	movs	r1, r5
    12cc:	4b1b      	ldr	r3, [pc, #108]	; (133c <vTaskIncrementTick+0x114>)
    12ce:	4798      	blx	r3
    12d0:	4b13      	ldr	r3, [pc, #76]	; (1320 <vTaskIncrementTick+0xf8>)
    12d2:	681b      	ldr	r3, [r3, #0]
    12d4:	681b      	ldr	r3, [r3, #0]
    12d6:	2b00      	cmp	r3, #0
    12d8:	d0ea      	beq.n	12b0 <vTaskIncrementTick+0x88>
    12da:	4b11      	ldr	r3, [pc, #68]	; (1320 <vTaskIncrementTick+0xf8>)
    12dc:	681b      	ldr	r3, [r3, #0]
    12de:	68db      	ldr	r3, [r3, #12]
    12e0:	68dc      	ldr	r4, [r3, #12]
    12e2:	6863      	ldr	r3, [r4, #4]
    12e4:	4a0d      	ldr	r2, [pc, #52]	; (131c <vTaskIncrementTick+0xf4>)
    12e6:	6812      	ldr	r2, [r2, #0]
    12e8:	4293      	cmp	r3, r2
    12ea:	d8e6      	bhi.n	12ba <vTaskIncrementTick+0x92>
    12ec:	1d25      	adds	r5, r4, #4
    12ee:	0028      	movs	r0, r5
    12f0:	47b8      	blx	r7
    12f2:	6aa3      	ldr	r3, [r4, #40]	; 0x28
    12f4:	2b00      	cmp	r3, #0
    12f6:	d003      	beq.n	1300 <vTaskIncrementTick+0xd8>
    12f8:	0020      	movs	r0, r4
    12fa:	3018      	adds	r0, #24
    12fc:	4b0c      	ldr	r3, [pc, #48]	; (1330 <vTaskIncrementTick+0x108>)
    12fe:	4798      	blx	r3
    1300:	6ae3      	ldr	r3, [r4, #44]	; 0x2c
    1302:	6832      	ldr	r2, [r6, #0]
    1304:	4293      	cmp	r3, r2
    1306:	d9db      	bls.n	12c0 <vTaskIncrementTick+0x98>
    1308:	4a0a      	ldr	r2, [pc, #40]	; (1334 <vTaskIncrementTick+0x10c>)
    130a:	6013      	str	r3, [r2, #0]
    130c:	e7d8      	b.n	12c0 <vTaskIncrementTick+0x98>
    130e:	4a0c      	ldr	r2, [pc, #48]	; (1340 <vTaskIncrementTick+0x118>)
    1310:	6813      	ldr	r3, [r2, #0]
    1312:	3301      	adds	r3, #1
    1314:	6013      	str	r3, [r2, #0]
    1316:	bdf8      	pop	{r3, r4, r5, r6, r7, pc}
    1318:	20003b40 	.word	0x20003b40
    131c:	20003bc4 	.word	0x20003bc4
    1320:	20003acc 	.word	0x20003acc
    1324:	20003ad0 	.word	0x20003ad0
    1328:	20003b80 	.word	0x20003b80
    132c:	20000004 	.word	0x20000004
    1330:	00000911 	.word	0x00000911
    1334:	20003b4c 	.word	0x20003b4c
    1338:	20003ad4 	.word	0x20003ad4
    133c:	000008bf 	.word	0x000008bf
    1340:	20003b3c 	.word	0x20003b3c

00001344 <xTaskResumeAll>:
    1344:	b5f8      	push	{r3, r4, r5, r6, r7, lr}
    1346:	4b2e      	ldr	r3, [pc, #184]	; (1400 <xTaskResumeAll+0xbc>)
    1348:	681b      	ldr	r3, [r3, #0]
    134a:	2b00      	cmp	r3, #0
    134c:	d101      	bne.n	1352 <xTaskResumeAll+0xe>
    134e:	b672      	cpsid	i
    1350:	e7fe      	b.n	1350 <xTaskResumeAll+0xc>
    1352:	4b2c      	ldr	r3, [pc, #176]	; (1404 <xTaskResumeAll+0xc0>)
    1354:	4798      	blx	r3
    1356:	4b2a      	ldr	r3, [pc, #168]	; (1400 <xTaskResumeAll+0xbc>)
    1358:	681a      	ldr	r2, [r3, #0]
    135a:	3a01      	subs	r2, #1
    135c:	601a      	str	r2, [r3, #0]
    135e:	681b      	ldr	r3, [r3, #0]
    1360:	2400      	movs	r4, #0
    1362:	2b00      	cmp	r3, #0
    1364:	d103      	bne.n	136e <xTaskResumeAll+0x2a>
    1366:	4b28      	ldr	r3, [pc, #160]	; (1408 <xTaskResumeAll+0xc4>)
    1368:	681b      	ldr	r3, [r3, #0]
    136a:	2b00      	cmp	r3, #0
    136c:	d103      	bne.n	1376 <xTaskResumeAll+0x32>
    136e:	4b27      	ldr	r3, [pc, #156]	; (140c <xTaskResumeAll+0xc8>)
    1370:	4798      	blx	r3
    1372:	0020      	movs	r0, r4
    1374:	bdf8      	pop	{r3, r4, r5, r6, r7, pc}
    1376:	4d26      	ldr	r5, [pc, #152]	; (1410 <xTaskResumeAll+0xcc>)
    1378:	682b      	ldr	r3, [r5, #0]
    137a:	2b00      	cmp	r3, #0
    137c:	d021      	beq.n	13c2 <xTaskResumeAll+0x7e>
    137e:	4b24      	ldr	r3, [pc, #144]	; (1410 <xTaskResumeAll+0xcc>)
    1380:	68db      	ldr	r3, [r3, #12]
    1382:	68df      	ldr	r7, [r3, #12]
    1384:	0038      	movs	r0, r7
    1386:	3018      	adds	r0, #24
    1388:	4b22      	ldr	r3, [pc, #136]	; (1414 <xTaskResumeAll+0xd0>)
    138a:	4798      	blx	r3
    138c:	1d3e      	adds	r6, r7, #4
    138e:	0030      	movs	r0, r6
    1390:	4b20      	ldr	r3, [pc, #128]	; (1414 <xTaskResumeAll+0xd0>)
    1392:	4798      	blx	r3
    1394:	6afb      	ldr	r3, [r7, #44]	; 0x2c
    1396:	4a20      	ldr	r2, [pc, #128]	; (1418 <xTaskResumeAll+0xd4>)
    1398:	6812      	ldr	r2, [r2, #0]
    139a:	4293      	cmp	r3, r2
    139c:	d901      	bls.n	13a2 <xTaskResumeAll+0x5e>
    139e:	4a1e      	ldr	r2, [pc, #120]	; (1418 <xTaskResumeAll+0xd4>)
    13a0:	6013      	str	r3, [r2, #0]
    13a2:	0098      	lsls	r0, r3, #2
    13a4:	18c0      	adds	r0, r0, r3
    13a6:	0080      	lsls	r0, r0, #2
    13a8:	4b1c      	ldr	r3, [pc, #112]	; (141c <xTaskResumeAll+0xd8>)
    13aa:	1818      	adds	r0, r3, r0
    13ac:	0031      	movs	r1, r6
    13ae:	4b1c      	ldr	r3, [pc, #112]	; (1420 <xTaskResumeAll+0xdc>)
    13b0:	4798      	blx	r3
    13b2:	4b1c      	ldr	r3, [pc, #112]	; (1424 <xTaskResumeAll+0xe0>)
    13b4:	681b      	ldr	r3, [r3, #0]
    13b6:	6afa      	ldr	r2, [r7, #44]	; 0x2c
    13b8:	6adb      	ldr	r3, [r3, #44]	; 0x2c
    13ba:	429a      	cmp	r2, r3
    13bc:	d3dc      	bcc.n	1378 <xTaskResumeAll+0x34>
    13be:	2401      	movs	r4, #1
    13c0:	e7da      	b.n	1378 <xTaskResumeAll+0x34>
    13c2:	4b19      	ldr	r3, [pc, #100]	; (1428 <xTaskResumeAll+0xe4>)
    13c4:	681b      	ldr	r3, [r3, #0]
    13c6:	2b00      	cmp	r3, #0
    13c8:	d013      	beq.n	13f2 <xTaskResumeAll+0xae>
    13ca:	4b17      	ldr	r3, [pc, #92]	; (1428 <xTaskResumeAll+0xe4>)
    13cc:	681b      	ldr	r3, [r3, #0]
    13ce:	2b00      	cmp	r3, #0
    13d0:	d008      	beq.n	13e4 <xTaskResumeAll+0xa0>
    13d2:	4d16      	ldr	r5, [pc, #88]	; (142c <xTaskResumeAll+0xe8>)
    13d4:	4c14      	ldr	r4, [pc, #80]	; (1428 <xTaskResumeAll+0xe4>)
    13d6:	47a8      	blx	r5
    13d8:	6823      	ldr	r3, [r4, #0]
    13da:	3b01      	subs	r3, #1
    13dc:	6023      	str	r3, [r4, #0]
    13de:	6823      	ldr	r3, [r4, #0]
    13e0:	2b00      	cmp	r3, #0
    13e2:	d1f8      	bne.n	13d6 <xTaskResumeAll+0x92>
    13e4:	2200      	movs	r2, #0
    13e6:	4b12      	ldr	r3, [pc, #72]	; (1430 <xTaskResumeAll+0xec>)
    13e8:	601a      	str	r2, [r3, #0]
    13ea:	4b12      	ldr	r3, [pc, #72]	; (1434 <xTaskResumeAll+0xf0>)
    13ec:	4798      	blx	r3
    13ee:	2401      	movs	r4, #1
    13f0:	e7bd      	b.n	136e <xTaskResumeAll+0x2a>
    13f2:	2c01      	cmp	r4, #1
    13f4:	d0f6      	beq.n	13e4 <xTaskResumeAll+0xa0>
    13f6:	4b0e      	ldr	r3, [pc, #56]	; (1430 <xTaskResumeAll+0xec>)
    13f8:	681b      	ldr	r3, [r3, #0]
    13fa:	2b01      	cmp	r3, #1
    13fc:	d1b7      	bne.n	136e <xTaskResumeAll+0x2a>
    13fe:	e7f1      	b.n	13e4 <xTaskResumeAll+0xa0>
    1400:	20003b40 	.word	0x20003b40
    1404:	00000741 	.word	0x00000741
    1408:	20003b38 	.word	0x20003b38
    140c:	00000759 	.word	0x00000759
    1410:	20003b84 	.word	0x20003b84
    1414:	00000911 	.word	0x00000911
    1418:	20003b4c 	.word	0x20003b4c
    141c:	20003ad4 	.word	0x20003ad4
    1420:	000008bf 	.word	0x000008bf
    1424:	20003ac8 	.word	0x20003ac8
    1428:	20003b3c 	.word	0x20003b3c
    142c:	00001229 	.word	0x00001229
    1430:	20003b7c 	.word	0x20003b7c
    1434:	00000729 	.word	0x00000729

00001438 <prvIdleTask>:
    1438:	b5f8      	push	{r3, r4, r5, r6, r7, lr}
    143a:	46ce      	mov	lr, r9
    143c:	4647      	mov	r7, r8
    143e:	b580      	push	{r7, lr}
    1440:	4b16      	ldr	r3, [pc, #88]	; (149c <prvIdleTask+0x64>)
    1442:	4698      	mov	r8, r3
    1444:	4f16      	ldr	r7, [pc, #88]	; (14a0 <prvIdleTask+0x68>)
    1446:	4e17      	ldr	r6, [pc, #92]	; (14a4 <prvIdleTask+0x6c>)
    1448:	e026      	b.n	1498 <prvIdleTask+0x60>
    144a:	4b17      	ldr	r3, [pc, #92]	; (14a8 <prvIdleTask+0x70>)
    144c:	681b      	ldr	r3, [r3, #0]
    144e:	2b01      	cmp	r3, #1
    1450:	d820      	bhi.n	1494 <prvIdleTask+0x5c>
    1452:	682b      	ldr	r3, [r5, #0]
    1454:	2b00      	cmp	r3, #0
    1456:	d0f8      	beq.n	144a <prvIdleTask+0x12>
    1458:	47c0      	blx	r8
    145a:	683c      	ldr	r4, [r7, #0]
    145c:	47b0      	blx	r6
    145e:	2c00      	cmp	r4, #0
    1460:	d0f7      	beq.n	1452 <prvIdleTask+0x1a>
    1462:	4b12      	ldr	r3, [pc, #72]	; (14ac <prvIdleTask+0x74>)
    1464:	4798      	blx	r3
    1466:	4b0e      	ldr	r3, [pc, #56]	; (14a0 <prvIdleTask+0x68>)
    1468:	68db      	ldr	r3, [r3, #12]
    146a:	68dc      	ldr	r4, [r3, #12]
    146c:	1d20      	adds	r0, r4, #4
    146e:	4b10      	ldr	r3, [pc, #64]	; (14b0 <prvIdleTask+0x78>)
    1470:	4798      	blx	r3
    1472:	4a10      	ldr	r2, [pc, #64]	; (14b4 <prvIdleTask+0x7c>)
    1474:	6813      	ldr	r3, [r2, #0]
    1476:	3b01      	subs	r3, #1
    1478:	6013      	str	r3, [r2, #0]
    147a:	4a0f      	ldr	r2, [pc, #60]	; (14b8 <prvIdleTask+0x80>)
    147c:	6813      	ldr	r3, [r2, #0]
    147e:	3b01      	subs	r3, #1
    1480:	6013      	str	r3, [r2, #0]
    1482:	4b0e      	ldr	r3, [pc, #56]	; (14bc <prvIdleTask+0x84>)
    1484:	4798      	blx	r3
    1486:	6b20      	ldr	r0, [r4, #48]	; 0x30
    1488:	4b0d      	ldr	r3, [pc, #52]	; (14c0 <prvIdleTask+0x88>)
    148a:	4699      	mov	r9, r3
    148c:	4798      	blx	r3
    148e:	0020      	movs	r0, r4
    1490:	47c8      	blx	r9
    1492:	e7de      	b.n	1452 <prvIdleTask+0x1a>
    1494:	4b0b      	ldr	r3, [pc, #44]	; (14c4 <prvIdleTask+0x8c>)
    1496:	4798      	blx	r3
    1498:	4d07      	ldr	r5, [pc, #28]	; (14b8 <prvIdleTask+0x80>)
    149a:	e7da      	b.n	1452 <prvIdleTask+0x1a>
    149c:	000011f9 	.word	0x000011f9
    14a0:	20003bb0 	.word	0x20003bb0
    14a4:	00001345 	.word	0x00001345
    14a8:	20003ad4 	.word	0x20003ad4
    14ac:	00000741 	.word	0x00000741
    14b0:	00000911 	.word	0x00000911
    14b4:	20003b38 	.word	0x20003b38
    14b8:	20003b48 	.word	0x20003b48
    14bc:	00000759 	.word	0x00000759
    14c0:	00000899 	.word	0x00000899
    14c4:	00000729 	.word	0x00000729

000014c8 <vTaskSwitchContext>:
    14c8:	b510      	push	{r4, lr}
    14ca:	4b24      	ldr	r3, [pc, #144]	; (155c <vTaskSwitchContext+0x94>)
    14cc:	681b      	ldr	r3, [r3, #0]
    14ce:	2b00      	cmp	r3, #0
    14d0:	d11e      	bne.n	1510 <vTaskSwitchContext+0x48>
    14d2:	4b23      	ldr	r3, [pc, #140]	; (1560 <vTaskSwitchContext+0x98>)
    14d4:	681a      	ldr	r2, [r3, #0]
    14d6:	0093      	lsls	r3, r2, #2
    14d8:	189b      	adds	r3, r3, r2
    14da:	009b      	lsls	r3, r3, #2
    14dc:	4a21      	ldr	r2, [pc, #132]	; (1564 <vTaskSwitchContext+0x9c>)
    14de:	589b      	ldr	r3, [r3, r2]
    14e0:	2b00      	cmp	r3, #0
    14e2:	d119      	bne.n	1518 <vTaskSwitchContext+0x50>
    14e4:	4b1e      	ldr	r3, [pc, #120]	; (1560 <vTaskSwitchContext+0x98>)
    14e6:	681b      	ldr	r3, [r3, #0]
    14e8:	2b00      	cmp	r3, #0
    14ea:	d00f      	beq.n	150c <vTaskSwitchContext+0x44>
    14ec:	4a1c      	ldr	r2, [pc, #112]	; (1560 <vTaskSwitchContext+0x98>)
    14ee:	4c1d      	ldr	r4, [pc, #116]	; (1564 <vTaskSwitchContext+0x9c>)
    14f0:	0010      	movs	r0, r2
    14f2:	6813      	ldr	r3, [r2, #0]
    14f4:	3b01      	subs	r3, #1
    14f6:	6013      	str	r3, [r2, #0]
    14f8:	6811      	ldr	r1, [r2, #0]
    14fa:	008b      	lsls	r3, r1, #2
    14fc:	185b      	adds	r3, r3, r1
    14fe:	009b      	lsls	r3, r3, #2
    1500:	591b      	ldr	r3, [r3, r4]
    1502:	2b00      	cmp	r3, #0
    1504:	d108      	bne.n	1518 <vTaskSwitchContext+0x50>
    1506:	6803      	ldr	r3, [r0, #0]
    1508:	2b00      	cmp	r3, #0
    150a:	d1f2      	bne.n	14f2 <vTaskSwitchContext+0x2a>
    150c:	b672      	cpsid	i
    150e:	e7fe      	b.n	150e <vTaskSwitchContext+0x46>
    1510:	2201      	movs	r2, #1
    1512:	4b15      	ldr	r3, [pc, #84]	; (1568 <vTaskSwitchContext+0xa0>)
    1514:	601a      	str	r2, [r3, #0]
    1516:	bd10      	pop	{r4, pc}
    1518:	4b11      	ldr	r3, [pc, #68]	; (1560 <vTaskSwitchContext+0x98>)
    151a:	681a      	ldr	r2, [r3, #0]
    151c:	4811      	ldr	r0, [pc, #68]	; (1564 <vTaskSwitchContext+0x9c>)
    151e:	0093      	lsls	r3, r2, #2
    1520:	1899      	adds	r1, r3, r2
    1522:	0089      	lsls	r1, r1, #2
    1524:	1841      	adds	r1, r0, r1
    1526:	684c      	ldr	r4, [r1, #4]
    1528:	6864      	ldr	r4, [r4, #4]
    152a:	604c      	str	r4, [r1, #4]
    152c:	189b      	adds	r3, r3, r2
    152e:	009b      	lsls	r3, r3, #2
    1530:	3308      	adds	r3, #8
    1532:	18c3      	adds	r3, r0, r3
    1534:	429c      	cmp	r4, r3
    1536:	d009      	beq.n	154c <vTaskSwitchContext+0x84>
    1538:	0093      	lsls	r3, r2, #2
    153a:	189a      	adds	r2, r3, r2
    153c:	0092      	lsls	r2, r2, #2
    153e:	4b09      	ldr	r3, [pc, #36]	; (1564 <vTaskSwitchContext+0x9c>)
    1540:	189a      	adds	r2, r3, r2
    1542:	6853      	ldr	r3, [r2, #4]
    1544:	68da      	ldr	r2, [r3, #12]
    1546:	4b09      	ldr	r3, [pc, #36]	; (156c <vTaskSwitchContext+0xa4>)
    1548:	601a      	str	r2, [r3, #0]
    154a:	e7e4      	b.n	1516 <vTaskSwitchContext+0x4e>
    154c:	6860      	ldr	r0, [r4, #4]
    154e:	0093      	lsls	r3, r2, #2
    1550:	189b      	adds	r3, r3, r2
    1552:	009b      	lsls	r3, r3, #2
    1554:	4903      	ldr	r1, [pc, #12]	; (1564 <vTaskSwitchContext+0x9c>)
    1556:	18cb      	adds	r3, r1, r3
    1558:	6058      	str	r0, [r3, #4]
    155a:	e7ed      	b.n	1538 <vTaskSwitchContext+0x70>
    155c:	20003b40 	.word	0x20003b40
    1560:	20003b4c 	.word	0x20003b4c
    1564:	20003ad4 	.word	0x20003ad4
    1568:	20003b7c 	.word	0x20003b7c
    156c:	20003ac8 	.word	0x20003ac8

00001570 <vTaskPlaceOnEventList>:
    1570:	b570      	push	{r4, r5, r6, lr}
    1572:	000c      	movs	r4, r1
    1574:	2800      	cmp	r0, #0
    1576:	d010      	beq.n	159a <vTaskPlaceOnEventList+0x2a>
    1578:	4d0c      	ldr	r5, [pc, #48]	; (15ac <vTaskPlaceOnEventList+0x3c>)
    157a:	6829      	ldr	r1, [r5, #0]
    157c:	3118      	adds	r1, #24
    157e:	4b0c      	ldr	r3, [pc, #48]	; (15b0 <vTaskPlaceOnEventList+0x40>)
    1580:	4798      	blx	r3
    1582:	6828      	ldr	r0, [r5, #0]
    1584:	3004      	adds	r0, #4
    1586:	4b0b      	ldr	r3, [pc, #44]	; (15b4 <vTaskPlaceOnEventList+0x44>)
    1588:	4798      	blx	r3
    158a:	1c63      	adds	r3, r4, #1
    158c:	d007      	beq.n	159e <vTaskPlaceOnEventList+0x2e>
    158e:	4b0a      	ldr	r3, [pc, #40]	; (15b8 <vTaskPlaceOnEventList+0x48>)
    1590:	6818      	ldr	r0, [r3, #0]
    1592:	1820      	adds	r0, r4, r0
    1594:	4b09      	ldr	r3, [pc, #36]	; (15bc <vTaskPlaceOnEventList+0x4c>)
    1596:	4798      	blx	r3
    1598:	bd70      	pop	{r4, r5, r6, pc}
    159a:	b672      	cpsid	i
    159c:	e7fe      	b.n	159c <vTaskPlaceOnEventList+0x2c>
    159e:	4b03      	ldr	r3, [pc, #12]	; (15ac <vTaskPlaceOnEventList+0x3c>)
    15a0:	6819      	ldr	r1, [r3, #0]
    15a2:	3104      	adds	r1, #4
    15a4:	4806      	ldr	r0, [pc, #24]	; (15c0 <vTaskPlaceOnEventList+0x50>)
    15a6:	4b07      	ldr	r3, [pc, #28]	; (15c4 <vTaskPlaceOnEventList+0x54>)
    15a8:	4798      	blx	r3
    15aa:	e7f5      	b.n	1598 <vTaskPlaceOnEventList+0x28>
    15ac:	20003ac8 	.word	0x20003ac8
    15b0:	000008db 	.word	0x000008db
    15b4:	00000911 	.word	0x00000911
    15b8:	20003bc4 	.word	0x20003bc4
    15bc:	00000f45 	.word	0x00000f45
    15c0:	20003b9c 	.word	0x20003b9c
    15c4:	000008bf 	.word	0x000008bf

000015c8 <vTaskPlaceOnEventListRestricted>:
    15c8:	b570      	push	{r4, r5, r6, lr}
    15ca:	000d      	movs	r5, r1
    15cc:	2800      	cmp	r0, #0
    15ce:	d101      	bne.n	15d4 <vTaskPlaceOnEventListRestricted+0xc>
    15d0:	b672      	cpsid	i
    15d2:	e7fe      	b.n	15d2 <vTaskPlaceOnEventListRestricted+0xa>
    15d4:	4c07      	ldr	r4, [pc, #28]	; (15f4 <vTaskPlaceOnEventListRestricted+0x2c>)
    15d6:	6821      	ldr	r1, [r4, #0]
    15d8:	3118      	adds	r1, #24
    15da:	4b07      	ldr	r3, [pc, #28]	; (15f8 <vTaskPlaceOnEventListRestricted+0x30>)
    15dc:	4798      	blx	r3
    15de:	6820      	ldr	r0, [r4, #0]
    15e0:	3004      	adds	r0, #4
    15e2:	4b06      	ldr	r3, [pc, #24]	; (15fc <vTaskPlaceOnEventListRestricted+0x34>)
    15e4:	4798      	blx	r3
    15e6:	4b06      	ldr	r3, [pc, #24]	; (1600 <vTaskPlaceOnEventListRestricted+0x38>)
    15e8:	6818      	ldr	r0, [r3, #0]
    15ea:	1940      	adds	r0, r0, r5
    15ec:	4b05      	ldr	r3, [pc, #20]	; (1604 <vTaskPlaceOnEventListRestricted+0x3c>)
    15ee:	4798      	blx	r3
    15f0:	bd70      	pop	{r4, r5, r6, pc}
    15f2:	46c0      	nop			; (mov r8, r8)
    15f4:	20003ac8 	.word	0x20003ac8
    15f8:	000008bf 	.word	0x000008bf
    15fc:	00000911 	.word	0x00000911
    1600:	20003bc4 	.word	0x20003bc4
    1604:	00000f45 	.word	0x00000f45

00001608 <xTaskRemoveFromEventList>:
    1608:	b570      	push	{r4, r5, r6, lr}
    160a:	68c3      	ldr	r3, [r0, #12]
    160c:	68dc      	ldr	r4, [r3, #12]
    160e:	2c00      	cmp	r4, #0
    1610:	d023      	beq.n	165a <xTaskRemoveFromEventList+0x52>
    1612:	0025      	movs	r5, r4
    1614:	3518      	adds	r5, #24
    1616:	0028      	movs	r0, r5
    1618:	4b13      	ldr	r3, [pc, #76]	; (1668 <xTaskRemoveFromEventList+0x60>)
    161a:	4798      	blx	r3
    161c:	4b13      	ldr	r3, [pc, #76]	; (166c <xTaskRemoveFromEventList+0x64>)
    161e:	681b      	ldr	r3, [r3, #0]
    1620:	2b00      	cmp	r3, #0
    1622:	d11c      	bne.n	165e <xTaskRemoveFromEventList+0x56>
    1624:	1d25      	adds	r5, r4, #4
    1626:	0028      	movs	r0, r5
    1628:	4b0f      	ldr	r3, [pc, #60]	; (1668 <xTaskRemoveFromEventList+0x60>)
    162a:	4798      	blx	r3
    162c:	6ae3      	ldr	r3, [r4, #44]	; 0x2c
    162e:	4a10      	ldr	r2, [pc, #64]	; (1670 <xTaskRemoveFromEventList+0x68>)
    1630:	6812      	ldr	r2, [r2, #0]
    1632:	4293      	cmp	r3, r2
    1634:	d901      	bls.n	163a <xTaskRemoveFromEventList+0x32>
    1636:	4a0e      	ldr	r2, [pc, #56]	; (1670 <xTaskRemoveFromEventList+0x68>)
    1638:	6013      	str	r3, [r2, #0]
    163a:	0098      	lsls	r0, r3, #2
    163c:	18c0      	adds	r0, r0, r3
    163e:	0080      	lsls	r0, r0, #2
    1640:	4b0c      	ldr	r3, [pc, #48]	; (1674 <xTaskRemoveFromEventList+0x6c>)
    1642:	1818      	adds	r0, r3, r0
    1644:	0029      	movs	r1, r5
    1646:	4b0c      	ldr	r3, [pc, #48]	; (1678 <xTaskRemoveFromEventList+0x70>)
    1648:	4798      	blx	r3
    164a:	4b0c      	ldr	r3, [pc, #48]	; (167c <xTaskRemoveFromEventList+0x74>)
    164c:	681b      	ldr	r3, [r3, #0]
    164e:	6ae2      	ldr	r2, [r4, #44]	; 0x2c
    1650:	6adb      	ldr	r3, [r3, #44]	; 0x2c
    1652:	2000      	movs	r0, #0
    1654:	429a      	cmp	r2, r3
    1656:	4140      	adcs	r0, r0
    1658:	bd70      	pop	{r4, r5, r6, pc}
    165a:	b672      	cpsid	i
    165c:	e7fe      	b.n	165c <xTaskRemoveFromEventList+0x54>
    165e:	0029      	movs	r1, r5
    1660:	4807      	ldr	r0, [pc, #28]	; (1680 <xTaskRemoveFromEventList+0x78>)
    1662:	4b05      	ldr	r3, [pc, #20]	; (1678 <xTaskRemoveFromEventList+0x70>)
    1664:	4798      	blx	r3
    1666:	e7f0      	b.n	164a <xTaskRemoveFromEventList+0x42>
    1668:	00000911 	.word	0x00000911
    166c:	20003b40 	.word	0x20003b40
    1670:	20003b4c 	.word	0x20003b4c
    1674:	20003ad4 	.word	0x20003ad4
    1678:	000008bf 	.word	0x000008bf
    167c:	20003ac8 	.word	0x20003ac8
    1680:	20003b84 	.word	0x20003b84

00001684 <vTaskSetTimeOutState>:
    1684:	2800      	cmp	r0, #0
    1686:	d006      	beq.n	1696 <vTaskSetTimeOutState+0x12>
    1688:	4b04      	ldr	r3, [pc, #16]	; (169c <vTaskSetTimeOutState+0x18>)
    168a:	681b      	ldr	r3, [r3, #0]
    168c:	6003      	str	r3, [r0, #0]
    168e:	4b04      	ldr	r3, [pc, #16]	; (16a0 <vTaskSetTimeOutState+0x1c>)
    1690:	681b      	ldr	r3, [r3, #0]
    1692:	6043      	str	r3, [r0, #4]
    1694:	4770      	bx	lr
    1696:	b672      	cpsid	i
    1698:	e7fe      	b.n	1698 <vTaskSetTimeOutState+0x14>
    169a:	46c0      	nop			; (mov r8, r8)
    169c:	20003b80 	.word	0x20003b80
    16a0:	20003bc4 	.word	0x20003bc4

000016a4 <xTaskCheckForTimeOut>:
    16a4:	b570      	push	{r4, r5, r6, lr}
    16a6:	0004      	movs	r4, r0
    16a8:	000e      	movs	r6, r1
    16aa:	2800      	cmp	r0, #0
    16ac:	d01c      	beq.n	16e8 <xTaskCheckForTimeOut+0x44>
    16ae:	2900      	cmp	r1, #0
    16b0:	d01c      	beq.n	16ec <xTaskCheckForTimeOut+0x48>
    16b2:	4b15      	ldr	r3, [pc, #84]	; (1708 <xTaskCheckForTimeOut+0x64>)
    16b4:	4798      	blx	r3
    16b6:	6833      	ldr	r3, [r6, #0]
    16b8:	1c5a      	adds	r2, r3, #1
    16ba:	d022      	beq.n	1702 <xTaskCheckForTimeOut+0x5e>
    16bc:	4a13      	ldr	r2, [pc, #76]	; (170c <xTaskCheckForTimeOut+0x68>)
    16be:	6812      	ldr	r2, [r2, #0]
    16c0:	6821      	ldr	r1, [r4, #0]
    16c2:	4291      	cmp	r1, r2
    16c4:	d005      	beq.n	16d2 <xTaskCheckForTimeOut+0x2e>
    16c6:	4a12      	ldr	r2, [pc, #72]	; (1710 <xTaskCheckForTimeOut+0x6c>)
    16c8:	6812      	ldr	r2, [r2, #0]
    16ca:	2501      	movs	r5, #1
    16cc:	6861      	ldr	r1, [r4, #4]
    16ce:	4291      	cmp	r1, r2
    16d0:	d906      	bls.n	16e0 <xTaskCheckForTimeOut+0x3c>
    16d2:	4a0f      	ldr	r2, [pc, #60]	; (1710 <xTaskCheckForTimeOut+0x6c>)
    16d4:	6811      	ldr	r1, [r2, #0]
    16d6:	6860      	ldr	r0, [r4, #4]
    16d8:	1a09      	subs	r1, r1, r0
    16da:	2501      	movs	r5, #1
    16dc:	428b      	cmp	r3, r1
    16de:	d807      	bhi.n	16f0 <xTaskCheckForTimeOut+0x4c>
    16e0:	4b0c      	ldr	r3, [pc, #48]	; (1714 <xTaskCheckForTimeOut+0x70>)
    16e2:	4798      	blx	r3
    16e4:	0028      	movs	r0, r5
    16e6:	bd70      	pop	{r4, r5, r6, pc}
    16e8:	b672      	cpsid	i
    16ea:	e7fe      	b.n	16ea <xTaskCheckForTimeOut+0x46>
    16ec:	b672      	cpsid	i
    16ee:	e7fe      	b.n	16ee <xTaskCheckForTimeOut+0x4a>
    16f0:	6812      	ldr	r2, [r2, #0]
    16f2:	1a12      	subs	r2, r2, r0
    16f4:	1a9b      	subs	r3, r3, r2
    16f6:	6033      	str	r3, [r6, #0]
    16f8:	0020      	movs	r0, r4
    16fa:	4b07      	ldr	r3, [pc, #28]	; (1718 <xTaskCheckForTimeOut+0x74>)
    16fc:	4798      	blx	r3
    16fe:	2500      	movs	r5, #0
    1700:	e7ee      	b.n	16e0 <xTaskCheckForTimeOut+0x3c>
    1702:	2500      	movs	r5, #0
    1704:	e7ec      	b.n	16e0 <xTaskCheckForTimeOut+0x3c>
    1706:	46c0      	nop			; (mov r8, r8)
    1708:	00000741 	.word	0x00000741
    170c:	20003b80 	.word	0x20003b80
    1710:	20003bc4 	.word	0x20003bc4
    1714:	00000759 	.word	0x00000759
    1718:	00001685 	.word	0x00001685

0000171c <vTaskMissedYield>:
    171c:	2201      	movs	r2, #1
    171e:	4b01      	ldr	r3, [pc, #4]	; (1724 <vTaskMissedYield+0x8>)
    1720:	601a      	str	r2, [r3, #0]
    1722:	4770      	bx	lr
    1724:	20003b7c 	.word	0x20003b7c

00001728 <xTaskGetCurrentTaskHandle>:
    1728:	4b01      	ldr	r3, [pc, #4]	; (1730 <xTaskGetCurrentTaskHandle+0x8>)
    172a:	6818      	ldr	r0, [r3, #0]
    172c:	4770      	bx	lr
    172e:	46c0      	nop			; (mov r8, r8)
    1730:	20003ac8 	.word	0x20003ac8

00001734 <xTaskGetSchedulerState>:
    1734:	4b05      	ldr	r3, [pc, #20]	; (174c <xTaskGetSchedulerState+0x18>)
    1736:	681b      	ldr	r3, [r3, #0]
    1738:	2000      	movs	r0, #0
    173a:	2b00      	cmp	r3, #0
    173c:	d004      	beq.n	1748 <xTaskGetSchedulerState+0x14>
    173e:	4b04      	ldr	r3, [pc, #16]	; (1750 <xTaskGetSchedulerState+0x1c>)
    1740:	6818      	ldr	r0, [r3, #0]
    1742:	1e43      	subs	r3, r0, #1
    1744:	4198      	sbcs	r0, r3
    1746:	3001      	adds	r0, #1
    1748:	4770      	bx	lr
    174a:	46c0      	nop			; (mov r8, r8)
    174c:	20003b98 	.word	0x20003b98
    1750:	20003b40 	.word	0x20003b40

00001754 <vTaskPriorityInherit>:
    1754:	b570      	push	{r4, r5, r6, lr}
    1756:	1e04      	subs	r4, r0, #0
    1758:	d017      	beq.n	178a <vTaskPriorityInherit+0x36>
    175a:	6ac2      	ldr	r2, [r0, #44]	; 0x2c
    175c:	4b17      	ldr	r3, [pc, #92]	; (17bc <vTaskPriorityInherit+0x68>)
    175e:	681b      	ldr	r3, [r3, #0]
    1760:	6adb      	ldr	r3, [r3, #44]	; 0x2c
    1762:	429a      	cmp	r2, r3
    1764:	d211      	bcs.n	178a <vTaskPriorityInherit+0x36>
    1766:	4b15      	ldr	r3, [pc, #84]	; (17bc <vTaskPriorityInherit+0x68>)
    1768:	681b      	ldr	r3, [r3, #0]
    176a:	6ad9      	ldr	r1, [r3, #44]	; 0x2c
    176c:	2305      	movs	r3, #5
    176e:	1a5b      	subs	r3, r3, r1
    1770:	6183      	str	r3, [r0, #24]
    1772:	0093      	lsls	r3, r2, #2
    1774:	189b      	adds	r3, r3, r2
    1776:	009b      	lsls	r3, r3, #2
    1778:	4a11      	ldr	r2, [pc, #68]	; (17c0 <vTaskPriorityInherit+0x6c>)
    177a:	18d3      	adds	r3, r2, r3
    177c:	6942      	ldr	r2, [r0, #20]
    177e:	429a      	cmp	r2, r3
    1780:	d004      	beq.n	178c <vTaskPriorityInherit+0x38>
    1782:	4b0e      	ldr	r3, [pc, #56]	; (17bc <vTaskPriorityInherit+0x68>)
    1784:	681b      	ldr	r3, [r3, #0]
    1786:	6adb      	ldr	r3, [r3, #44]	; 0x2c
    1788:	62c3      	str	r3, [r0, #44]	; 0x2c
    178a:	bd70      	pop	{r4, r5, r6, pc}
    178c:	1d05      	adds	r5, r0, #4
    178e:	0028      	movs	r0, r5
    1790:	4b0c      	ldr	r3, [pc, #48]	; (17c4 <vTaskPriorityInherit+0x70>)
    1792:	4798      	blx	r3
    1794:	4b09      	ldr	r3, [pc, #36]	; (17bc <vTaskPriorityInherit+0x68>)
    1796:	681b      	ldr	r3, [r3, #0]
    1798:	6adb      	ldr	r3, [r3, #44]	; 0x2c
    179a:	62e3      	str	r3, [r4, #44]	; 0x2c
    179c:	4a0a      	ldr	r2, [pc, #40]	; (17c8 <vTaskPriorityInherit+0x74>)
    179e:	6812      	ldr	r2, [r2, #0]
    17a0:	4293      	cmp	r3, r2
    17a2:	d901      	bls.n	17a8 <vTaskPriorityInherit+0x54>
    17a4:	4a08      	ldr	r2, [pc, #32]	; (17c8 <vTaskPriorityInherit+0x74>)
    17a6:	6013      	str	r3, [r2, #0]
    17a8:	0098      	lsls	r0, r3, #2
    17aa:	18c0      	adds	r0, r0, r3
    17ac:	0080      	lsls	r0, r0, #2
    17ae:	4b04      	ldr	r3, [pc, #16]	; (17c0 <vTaskPriorityInherit+0x6c>)
    17b0:	1818      	adds	r0, r3, r0
    17b2:	0029      	movs	r1, r5
    17b4:	4b05      	ldr	r3, [pc, #20]	; (17cc <vTaskPriorityInherit+0x78>)
    17b6:	4798      	blx	r3
    17b8:	e7e7      	b.n	178a <vTaskPriorityInherit+0x36>
    17ba:	46c0      	nop			; (mov r8, r8)
    17bc:	20003ac8 	.word	0x20003ac8
    17c0:	20003ad4 	.word	0x20003ad4
    17c4:	00000911 	.word	0x00000911
    17c8:	20003b4c 	.word	0x20003b4c
    17cc:	000008bf 	.word	0x000008bf

000017d0 <vTaskPriorityDisinherit>:
    17d0:	b570      	push	{r4, r5, r6, lr}
    17d2:	1e04      	subs	r4, r0, #0
    17d4:	d01a      	beq.n	180c <vTaskPriorityDisinherit+0x3c>
    17d6:	6ac3      	ldr	r3, [r0, #44]	; 0x2c
    17d8:	6bc2      	ldr	r2, [r0, #60]	; 0x3c
    17da:	4293      	cmp	r3, r2
    17dc:	d016      	beq.n	180c <vTaskPriorityDisinherit+0x3c>
    17de:	1d05      	adds	r5, r0, #4
    17e0:	0028      	movs	r0, r5
    17e2:	4b0b      	ldr	r3, [pc, #44]	; (1810 <vTaskPriorityDisinherit+0x40>)
    17e4:	4798      	blx	r3
    17e6:	6be0      	ldr	r0, [r4, #60]	; 0x3c
    17e8:	62e0      	str	r0, [r4, #44]	; 0x2c
    17ea:	2305      	movs	r3, #5
    17ec:	1a1b      	subs	r3, r3, r0
    17ee:	61a3      	str	r3, [r4, #24]
    17f0:	4b08      	ldr	r3, [pc, #32]	; (1814 <vTaskPriorityDisinherit+0x44>)
    17f2:	681b      	ldr	r3, [r3, #0]
    17f4:	4298      	cmp	r0, r3
    17f6:	d901      	bls.n	17fc <vTaskPriorityDisinherit+0x2c>
    17f8:	4b06      	ldr	r3, [pc, #24]	; (1814 <vTaskPriorityDisinherit+0x44>)
    17fa:	6018      	str	r0, [r3, #0]
    17fc:	0083      	lsls	r3, r0, #2
    17fe:	1818      	adds	r0, r3, r0
    1800:	0080      	lsls	r0, r0, #2
    1802:	4b05      	ldr	r3, [pc, #20]	; (1818 <vTaskPriorityDisinherit+0x48>)
    1804:	1818      	adds	r0, r3, r0
    1806:	0029      	movs	r1, r5
    1808:	4b04      	ldr	r3, [pc, #16]	; (181c <vTaskPriorityDisinherit+0x4c>)
    180a:	4798      	blx	r3
    180c:	bd70      	pop	{r4, r5, r6, pc}
    180e:	46c0      	nop			; (mov r8, r8)
    1810:	00000911 	.word	0x00000911
    1814:	20003b4c 	.word	0x20003b4c
    1818:	20003ad4 	.word	0x20003ad4
    181c:	000008bf 	.word	0x000008bf

00001820 <prvInsertTimerInActiveList>:
    1820:	b510      	push	{r4, lr}
    1822:	6041      	str	r1, [r0, #4]
    1824:	6100      	str	r0, [r0, #16]
    1826:	4291      	cmp	r1, r2
    1828:	d80b      	bhi.n	1842 <prvInsertTimerInActiveList+0x22>
    182a:	1ad2      	subs	r2, r2, r3
    182c:	2401      	movs	r4, #1
    182e:	6983      	ldr	r3, [r0, #24]
    1830:	429a      	cmp	r2, r3
    1832:	d211      	bcs.n	1858 <prvInsertTimerInActiveList+0x38>
    1834:	1d01      	adds	r1, r0, #4
    1836:	4b09      	ldr	r3, [pc, #36]	; (185c <prvInsertTimerInActiveList+0x3c>)
    1838:	6818      	ldr	r0, [r3, #0]
    183a:	4b09      	ldr	r3, [pc, #36]	; (1860 <prvInsertTimerInActiveList+0x40>)
    183c:	4798      	blx	r3
    183e:	2400      	movs	r4, #0
    1840:	e00a      	b.n	1858 <prvInsertTimerInActiveList+0x38>
    1842:	429a      	cmp	r2, r3
    1844:	d202      	bcs.n	184c <prvInsertTimerInActiveList+0x2c>
    1846:	2401      	movs	r4, #1
    1848:	4299      	cmp	r1, r3
    184a:	d205      	bcs.n	1858 <prvInsertTimerInActiveList+0x38>
    184c:	1d01      	adds	r1, r0, #4
    184e:	4b05      	ldr	r3, [pc, #20]	; (1864 <prvInsertTimerInActiveList+0x44>)
    1850:	6818      	ldr	r0, [r3, #0]
    1852:	4b03      	ldr	r3, [pc, #12]	; (1860 <prvInsertTimerInActiveList+0x40>)
    1854:	4798      	blx	r3
    1856:	2400      	movs	r4, #0
    1858:	0020      	movs	r0, r4
    185a:	bd10      	pop	{r4, pc}
    185c:	20003bcc 	.word	0x20003bcc
    1860:	000008db 	.word	0x000008db
    1864:	20003bc8 	.word	0x20003bc8

00001868 <prvCheckForValidListAndQueue>:
    1868:	b570      	push	{r4, r5, r6, lr}
    186a:	4b0e      	ldr	r3, [pc, #56]	; (18a4 <prvCheckForValidListAndQueue+0x3c>)
    186c:	4798      	blx	r3
    186e:	4b0e      	ldr	r3, [pc, #56]	; (18a8 <prvCheckForValidListAndQueue+0x40>)
    1870:	681b      	ldr	r3, [r3, #0]
    1872:	2b00      	cmp	r3, #0
    1874:	d002      	beq.n	187c <prvCheckForValidListAndQueue+0x14>
    1876:	4b0d      	ldr	r3, [pc, #52]	; (18ac <prvCheckForValidListAndQueue+0x44>)
    1878:	4798      	blx	r3
    187a:	bd70      	pop	{r4, r5, r6, pc}
    187c:	4d0c      	ldr	r5, [pc, #48]	; (18b0 <prvCheckForValidListAndQueue+0x48>)
    187e:	0028      	movs	r0, r5
    1880:	4e0c      	ldr	r6, [pc, #48]	; (18b4 <prvCheckForValidListAndQueue+0x4c>)
    1882:	47b0      	blx	r6
    1884:	4c0c      	ldr	r4, [pc, #48]	; (18b8 <prvCheckForValidListAndQueue+0x50>)
    1886:	0020      	movs	r0, r4
    1888:	47b0      	blx	r6
    188a:	4b0c      	ldr	r3, [pc, #48]	; (18bc <prvCheckForValidListAndQueue+0x54>)
    188c:	601d      	str	r5, [r3, #0]
    188e:	4b0c      	ldr	r3, [pc, #48]	; (18c0 <prvCheckForValidListAndQueue+0x58>)
    1890:	601c      	str	r4, [r3, #0]
    1892:	2200      	movs	r2, #0
    1894:	210c      	movs	r1, #12
    1896:	2002      	movs	r0, #2
    1898:	4b0a      	ldr	r3, [pc, #40]	; (18c4 <prvCheckForValidListAndQueue+0x5c>)
    189a:	4798      	blx	r3
    189c:	4b02      	ldr	r3, [pc, #8]	; (18a8 <prvCheckForValidListAndQueue+0x40>)
    189e:	6018      	str	r0, [r3, #0]
    18a0:	e7e9      	b.n	1876 <prvCheckForValidListAndQueue+0xe>
    18a2:	46c0      	nop			; (mov r8, r8)
    18a4:	00000741 	.word	0x00000741
    18a8:	20003bfc 	.word	0x20003bfc
    18ac:	00000759 	.word	0x00000759
    18b0:	20003bd0 	.word	0x20003bd0
    18b4:	000008a3 	.word	0x000008a3
    18b8:	20003be4 	.word	0x20003be4
    18bc:	20003bc8 	.word	0x20003bc8
    18c0:	20003bcc 	.word	0x20003bcc
    18c4:	00000b49 	.word	0x00000b49

000018c8 <xTimerCreateTimerTask>:
    18c8:	b510      	push	{r4, lr}
    18ca:	b084      	sub	sp, #16
    18cc:	4b0b      	ldr	r3, [pc, #44]	; (18fc <xTimerCreateTimerTask+0x34>)
    18ce:	4798      	blx	r3
    18d0:	4b0b      	ldr	r3, [pc, #44]	; (1900 <xTimerCreateTimerTask+0x38>)
    18d2:	681b      	ldr	r3, [r3, #0]
    18d4:	2b00      	cmp	r3, #0
    18d6:	d00f      	beq.n	18f8 <xTimerCreateTimerTask+0x30>
    18d8:	2300      	movs	r3, #0
    18da:	9303      	str	r3, [sp, #12]
    18dc:	9302      	str	r3, [sp, #8]
    18de:	9301      	str	r3, [sp, #4]
    18e0:	3302      	adds	r3, #2
    18e2:	9300      	str	r3, [sp, #0]
    18e4:	2300      	movs	r3, #0
    18e6:	2250      	movs	r2, #80	; 0x50
    18e8:	4906      	ldr	r1, [pc, #24]	; (1904 <xTimerCreateTimerTask+0x3c>)
    18ea:	4807      	ldr	r0, [pc, #28]	; (1908 <xTimerCreateTimerTask+0x40>)
    18ec:	4c07      	ldr	r4, [pc, #28]	; (190c <xTimerCreateTimerTask+0x44>)
    18ee:	47a0      	blx	r4
    18f0:	2800      	cmp	r0, #0
    18f2:	d001      	beq.n	18f8 <xTimerCreateTimerTask+0x30>
    18f4:	b004      	add	sp, #16
    18f6:	bd10      	pop	{r4, pc}
    18f8:	b672      	cpsid	i
    18fa:	e7fe      	b.n	18fa <xTimerCreateTimerTask+0x32>
    18fc:	00001869 	.word	0x00001869
    1900:	20003bfc 	.word	0x20003bfc
    1904:	00004190 	.word	0x00004190
    1908:	00001a7d 	.word	0x00001a7d
    190c:	00000f9d 	.word	0x00000f9d

00001910 <xTimerCreate>:
    1910:	b5f0      	push	{r4, r5, r6, r7, lr}
    1912:	46c6      	mov	lr, r8
    1914:	b500      	push	{lr}
    1916:	4680      	mov	r8, r0
    1918:	000d      	movs	r5, r1
    191a:	0017      	movs	r7, r2
    191c:	001e      	movs	r6, r3
    191e:	2900      	cmp	r1, #0
    1920:	d101      	bne.n	1926 <xTimerCreate+0x16>
    1922:	b672      	cpsid	i
    1924:	e7fe      	b.n	1924 <xTimerCreate+0x14>
    1926:	2028      	movs	r0, #40	; 0x28
    1928:	4b09      	ldr	r3, [pc, #36]	; (1950 <xTimerCreate+0x40>)
    192a:	4798      	blx	r3
    192c:	1e04      	subs	r4, r0, #0
    192e:	d00b      	beq.n	1948 <xTimerCreate+0x38>
    1930:	4b08      	ldr	r3, [pc, #32]	; (1954 <xTimerCreate+0x44>)
    1932:	4798      	blx	r3
    1934:	4643      	mov	r3, r8
    1936:	6023      	str	r3, [r4, #0]
    1938:	61a5      	str	r5, [r4, #24]
    193a:	61e7      	str	r7, [r4, #28]
    193c:	6226      	str	r6, [r4, #32]
    193e:	9b06      	ldr	r3, [sp, #24]
    1940:	6263      	str	r3, [r4, #36]	; 0x24
    1942:	1d20      	adds	r0, r4, #4
    1944:	4b04      	ldr	r3, [pc, #16]	; (1958 <xTimerCreate+0x48>)
    1946:	4798      	blx	r3
    1948:	0020      	movs	r0, r4
    194a:	bc04      	pop	{r2}
    194c:	4690      	mov	r8, r2
    194e:	bdf0      	pop	{r4, r5, r6, r7, pc}
    1950:	0000082d 	.word	0x0000082d
    1954:	00001869 	.word	0x00001869
    1958:	000008b9 	.word	0x000008b9

0000195c <xTimerGenericCommand>:
    195c:	b530      	push	{r4, r5, lr}
    195e:	b085      	sub	sp, #20
    1960:	001d      	movs	r5, r3
    1962:	4b13      	ldr	r3, [pc, #76]	; (19b0 <xTimerGenericCommand+0x54>)
    1964:	681c      	ldr	r4, [r3, #0]
    1966:	2c00      	cmp	r4, #0
    1968:	d020      	beq.n	19ac <xTimerGenericCommand+0x50>
    196a:	9101      	str	r1, [sp, #4]
    196c:	9202      	str	r2, [sp, #8]
    196e:	9003      	str	r0, [sp, #12]
    1970:	2d00      	cmp	r5, #0
    1972:	d007      	beq.n	1984 <xTimerGenericCommand+0x28>
    1974:	2300      	movs	r3, #0
    1976:	002a      	movs	r2, r5
    1978:	a901      	add	r1, sp, #4
    197a:	0020      	movs	r0, r4
    197c:	4c0d      	ldr	r4, [pc, #52]	; (19b4 <xTimerGenericCommand+0x58>)
    197e:	47a0      	blx	r4
    1980:	b005      	add	sp, #20
    1982:	bd30      	pop	{r4, r5, pc}
    1984:	4b0c      	ldr	r3, [pc, #48]	; (19b8 <xTimerGenericCommand+0x5c>)
    1986:	4798      	blx	r3
    1988:	2801      	cmp	r0, #1
    198a:	d007      	beq.n	199c <xTimerGenericCommand+0x40>
    198c:	4b08      	ldr	r3, [pc, #32]	; (19b0 <xTimerGenericCommand+0x54>)
    198e:	6818      	ldr	r0, [r3, #0]
    1990:	2300      	movs	r3, #0
    1992:	2200      	movs	r2, #0
    1994:	a901      	add	r1, sp, #4
    1996:	4c09      	ldr	r4, [pc, #36]	; (19bc <xTimerGenericCommand+0x60>)
    1998:	47a0      	blx	r4
    199a:	e7f1      	b.n	1980 <xTimerGenericCommand+0x24>
    199c:	4b04      	ldr	r3, [pc, #16]	; (19b0 <xTimerGenericCommand+0x54>)
    199e:	6818      	ldr	r0, [r3, #0]
    19a0:	2300      	movs	r3, #0
    19a2:	9a08      	ldr	r2, [sp, #32]
    19a4:	a901      	add	r1, sp, #4
    19a6:	4c05      	ldr	r4, [pc, #20]	; (19bc <xTimerGenericCommand+0x60>)
    19a8:	47a0      	blx	r4
    19aa:	e7e9      	b.n	1980 <xTimerGenericCommand+0x24>
    19ac:	2000      	movs	r0, #0
    19ae:	e7e7      	b.n	1980 <xTimerGenericCommand+0x24>
    19b0:	20003bfc 	.word	0x20003bfc
    19b4:	00000ce5 	.word	0x00000ce5
    19b8:	00001735 	.word	0x00001735
    19bc:	00000b99 	.word	0x00000b99

000019c0 <prvSampleTimeNow>:
    19c0:	b5f0      	push	{r4, r5, r6, r7, lr}
    19c2:	46d6      	mov	lr, sl
    19c4:	464f      	mov	r7, r9
    19c6:	4646      	mov	r6, r8
    19c8:	b5c0      	push	{r6, r7, lr}
    19ca:	b082      	sub	sp, #8
    19cc:	4681      	mov	r9, r0
    19ce:	4b24      	ldr	r3, [pc, #144]	; (1a60 <prvSampleTimeNow+0xa0>)
    19d0:	4798      	blx	r3
    19d2:	4680      	mov	r8, r0
    19d4:	4b23      	ldr	r3, [pc, #140]	; (1a64 <prvSampleTimeNow+0xa4>)
    19d6:	681b      	ldr	r3, [r3, #0]
    19d8:	4298      	cmp	r0, r3
    19da:	d317      	bcc.n	1a0c <prvSampleTimeNow+0x4c>
    19dc:	2300      	movs	r3, #0
    19de:	464a      	mov	r2, r9
    19e0:	6013      	str	r3, [r2, #0]
    19e2:	4b20      	ldr	r3, [pc, #128]	; (1a64 <prvSampleTimeNow+0xa4>)
    19e4:	4642      	mov	r2, r8
    19e6:	601a      	str	r2, [r3, #0]
    19e8:	4640      	mov	r0, r8
    19ea:	b002      	add	sp, #8
    19ec:	bc1c      	pop	{r2, r3, r4}
    19ee:	4690      	mov	r8, r2
    19f0:	4699      	mov	r9, r3
    19f2:	46a2      	mov	sl, r4
    19f4:	bdf0      	pop	{r4, r5, r6, r7, pc}
    19f6:	2300      	movs	r3, #0
    19f8:	9300      	str	r3, [sp, #0]
    19fa:	4652      	mov	r2, sl
    19fc:	2100      	movs	r1, #0
    19fe:	0020      	movs	r0, r4
    1a00:	4c19      	ldr	r4, [pc, #100]	; (1a68 <prvSampleTimeNow+0xa8>)
    1a02:	47a0      	blx	r4
    1a04:	2800      	cmp	r0, #0
    1a06:	d103      	bne.n	1a10 <prvSampleTimeNow+0x50>
    1a08:	b672      	cpsid	i
    1a0a:	e7fe      	b.n	1a0a <prvSampleTimeNow+0x4a>
    1a0c:	4e17      	ldr	r6, [pc, #92]	; (1a6c <prvSampleTimeNow+0xac>)
    1a0e:	4f18      	ldr	r7, [pc, #96]	; (1a70 <prvSampleTimeNow+0xb0>)
    1a10:	6833      	ldr	r3, [r6, #0]
    1a12:	681a      	ldr	r2, [r3, #0]
    1a14:	2a00      	cmp	r2, #0
    1a16:	d019      	beq.n	1a4c <prvSampleTimeNow+0x8c>
    1a18:	68da      	ldr	r2, [r3, #12]
    1a1a:	6812      	ldr	r2, [r2, #0]
    1a1c:	4692      	mov	sl, r2
    1a1e:	68db      	ldr	r3, [r3, #12]
    1a20:	68dc      	ldr	r4, [r3, #12]
    1a22:	1d25      	adds	r5, r4, #4
    1a24:	0028      	movs	r0, r5
    1a26:	47b8      	blx	r7
    1a28:	0020      	movs	r0, r4
    1a2a:	6a63      	ldr	r3, [r4, #36]	; 0x24
    1a2c:	4798      	blx	r3
    1a2e:	69e3      	ldr	r3, [r4, #28]
    1a30:	2b01      	cmp	r3, #1
    1a32:	d1ed      	bne.n	1a10 <prvSampleTimeNow+0x50>
    1a34:	69a3      	ldr	r3, [r4, #24]
    1a36:	4453      	add	r3, sl
    1a38:	459a      	cmp	sl, r3
    1a3a:	d2dc      	bcs.n	19f6 <prvSampleTimeNow+0x36>
    1a3c:	6063      	str	r3, [r4, #4]
    1a3e:	6124      	str	r4, [r4, #16]
    1a40:	4b0a      	ldr	r3, [pc, #40]	; (1a6c <prvSampleTimeNow+0xac>)
    1a42:	6818      	ldr	r0, [r3, #0]
    1a44:	0029      	movs	r1, r5
    1a46:	4b0b      	ldr	r3, [pc, #44]	; (1a74 <prvSampleTimeNow+0xb4>)
    1a48:	4798      	blx	r3
    1a4a:	e7e1      	b.n	1a10 <prvSampleTimeNow+0x50>
    1a4c:	4a0a      	ldr	r2, [pc, #40]	; (1a78 <prvSampleTimeNow+0xb8>)
    1a4e:	4907      	ldr	r1, [pc, #28]	; (1a6c <prvSampleTimeNow+0xac>)
    1a50:	6810      	ldr	r0, [r2, #0]
    1a52:	6008      	str	r0, [r1, #0]
    1a54:	6013      	str	r3, [r2, #0]
    1a56:	2301      	movs	r3, #1
    1a58:	464a      	mov	r2, r9
    1a5a:	6013      	str	r3, [r2, #0]
    1a5c:	e7c1      	b.n	19e2 <prvSampleTimeNow+0x22>
    1a5e:	46c0      	nop			; (mov r8, r8)
    1a60:	00001209 	.word	0x00001209
    1a64:	20003bf8 	.word	0x20003bf8
    1a68:	0000195d 	.word	0x0000195d
    1a6c:	20003bc8 	.word	0x20003bc8
    1a70:	00000911 	.word	0x00000911
    1a74:	000008db 	.word	0x000008db
    1a78:	20003bcc 	.word	0x20003bcc

00001a7c <prvTimerTask>:
    1a7c:	b5f0      	push	{r4, r5, r6, r7, lr}
    1a7e:	b087      	sub	sp, #28
    1a80:	4f4e      	ldr	r7, [pc, #312]	; (1bbc <prvTimerTask+0x140>)
    1a82:	4b4f      	ldr	r3, [pc, #316]	; (1bc0 <prvTimerTask+0x144>)
    1a84:	681b      	ldr	r3, [r3, #0]
    1a86:	681a      	ldr	r2, [r3, #0]
    1a88:	2a00      	cmp	r2, #0
    1a8a:	d100      	bne.n	1a8e <prvTimerTask+0x12>
    1a8c:	e087      	b.n	1b9e <prvTimerTask+0x122>
    1a8e:	68db      	ldr	r3, [r3, #12]
    1a90:	681c      	ldr	r4, [r3, #0]
    1a92:	4b4c      	ldr	r3, [pc, #304]	; (1bc4 <prvTimerTask+0x148>)
    1a94:	4798      	blx	r3
    1a96:	a803      	add	r0, sp, #12
    1a98:	4b4b      	ldr	r3, [pc, #300]	; (1bc8 <prvTimerTask+0x14c>)
    1a9a:	4798      	blx	r3
    1a9c:	0005      	movs	r5, r0
    1a9e:	9b03      	ldr	r3, [sp, #12]
    1aa0:	2b00      	cmp	r3, #0
    1aa2:	d000      	beq.n	1aa6 <prvTimerTask+0x2a>
    1aa4:	e086      	b.n	1bb4 <prvTimerTask+0x138>
    1aa6:	42a0      	cmp	r0, r4
    1aa8:	d20c      	bcs.n	1ac4 <prvTimerTask+0x48>
    1aaa:	1b61      	subs	r1, r4, r5
    1aac:	4b47      	ldr	r3, [pc, #284]	; (1bcc <prvTimerTask+0x150>)
    1aae:	6818      	ldr	r0, [r3, #0]
    1ab0:	4b47      	ldr	r3, [pc, #284]	; (1bd0 <prvTimerTask+0x154>)
    1ab2:	4798      	blx	r3
    1ab4:	4b47      	ldr	r3, [pc, #284]	; (1bd4 <prvTimerTask+0x158>)
    1ab6:	4798      	blx	r3
    1ab8:	2800      	cmp	r0, #0
    1aba:	d101      	bne.n	1ac0 <prvTimerTask+0x44>
    1abc:	4b46      	ldr	r3, [pc, #280]	; (1bd8 <prvTimerTask+0x15c>)
    1abe:	4798      	blx	r3
    1ac0:	4e42      	ldr	r6, [pc, #264]	; (1bcc <prvTimerTask+0x150>)
    1ac2:	e033      	b.n	1b2c <prvTimerTask+0xb0>
    1ac4:	4b43      	ldr	r3, [pc, #268]	; (1bd4 <prvTimerTask+0x158>)
    1ac6:	4798      	blx	r3
    1ac8:	4b3d      	ldr	r3, [pc, #244]	; (1bc0 <prvTimerTask+0x144>)
    1aca:	681b      	ldr	r3, [r3, #0]
    1acc:	68db      	ldr	r3, [r3, #12]
    1ace:	68de      	ldr	r6, [r3, #12]
    1ad0:	1d30      	adds	r0, r6, #4
    1ad2:	4b3a      	ldr	r3, [pc, #232]	; (1bbc <prvTimerTask+0x140>)
    1ad4:	4798      	blx	r3
    1ad6:	69f3      	ldr	r3, [r6, #28]
    1ad8:	2b01      	cmp	r3, #1
    1ada:	d113      	bne.n	1b04 <prvTimerTask+0x88>
    1adc:	69b3      	ldr	r3, [r6, #24]
    1ade:	18e1      	adds	r1, r4, r3
    1ae0:	0023      	movs	r3, r4
    1ae2:	002a      	movs	r2, r5
    1ae4:	0030      	movs	r0, r6
    1ae6:	4d3d      	ldr	r5, [pc, #244]	; (1bdc <prvTimerTask+0x160>)
    1ae8:	47a8      	blx	r5
    1aea:	2801      	cmp	r0, #1
    1aec:	d10a      	bne.n	1b04 <prvTimerTask+0x88>
    1aee:	2300      	movs	r3, #0
    1af0:	9300      	str	r3, [sp, #0]
    1af2:	0022      	movs	r2, r4
    1af4:	2100      	movs	r1, #0
    1af6:	0030      	movs	r0, r6
    1af8:	4c39      	ldr	r4, [pc, #228]	; (1be0 <prvTimerTask+0x164>)
    1afa:	47a0      	blx	r4
    1afc:	2800      	cmp	r0, #0
    1afe:	d101      	bne.n	1b04 <prvTimerTask+0x88>
    1b00:	b672      	cpsid	i
    1b02:	e7fe      	b.n	1b02 <prvTimerTask+0x86>
    1b04:	6a73      	ldr	r3, [r6, #36]	; 0x24
    1b06:	0030      	movs	r0, r6
    1b08:	4798      	blx	r3
    1b0a:	e7d9      	b.n	1ac0 <prvTimerTask+0x44>
    1b0c:	9904      	ldr	r1, [sp, #16]
    1b0e:	61a1      	str	r1, [r4, #24]
    1b10:	2900      	cmp	r1, #0
    1b12:	d006      	beq.n	1b22 <prvTimerTask+0xa6>
    1b14:	1841      	adds	r1, r0, r1
    1b16:	0003      	movs	r3, r0
    1b18:	0002      	movs	r2, r0
    1b1a:	0020      	movs	r0, r4
    1b1c:	4c2f      	ldr	r4, [pc, #188]	; (1bdc <prvTimerTask+0x160>)
    1b1e:	47a0      	blx	r4
    1b20:	e004      	b.n	1b2c <prvTimerTask+0xb0>
    1b22:	b672      	cpsid	i
    1b24:	e7fe      	b.n	1b24 <prvTimerTask+0xa8>
    1b26:	0020      	movs	r0, r4
    1b28:	4b2e      	ldr	r3, [pc, #184]	; (1be4 <prvTimerTask+0x168>)
    1b2a:	4798      	blx	r3
    1b2c:	4d2e      	ldr	r5, [pc, #184]	; (1be8 <prvTimerTask+0x16c>)
    1b2e:	2300      	movs	r3, #0
    1b30:	2200      	movs	r2, #0
    1b32:	a903      	add	r1, sp, #12
    1b34:	6830      	ldr	r0, [r6, #0]
    1b36:	47a8      	blx	r5
    1b38:	2800      	cmp	r0, #0
    1b3a:	d0a2      	beq.n	1a82 <prvTimerTask+0x6>
    1b3c:	9c05      	ldr	r4, [sp, #20]
    1b3e:	6963      	ldr	r3, [r4, #20]
    1b40:	2b00      	cmp	r3, #0
    1b42:	d001      	beq.n	1b48 <prvTimerTask+0xcc>
    1b44:	1d20      	adds	r0, r4, #4
    1b46:	47b8      	blx	r7
    1b48:	a802      	add	r0, sp, #8
    1b4a:	4b1f      	ldr	r3, [pc, #124]	; (1bc8 <prvTimerTask+0x14c>)
    1b4c:	4798      	blx	r3
    1b4e:	9b03      	ldr	r3, [sp, #12]
    1b50:	2b02      	cmp	r3, #2
    1b52:	d0db      	beq.n	1b0c <prvTimerTask+0x90>
    1b54:	2b03      	cmp	r3, #3
    1b56:	d0e6      	beq.n	1b26 <prvTimerTask+0xaa>
    1b58:	2b00      	cmp	r3, #0
    1b5a:	d1e8      	bne.n	1b2e <prvTimerTask+0xb2>
    1b5c:	9b04      	ldr	r3, [sp, #16]
    1b5e:	69a2      	ldr	r2, [r4, #24]
    1b60:	4694      	mov	ip, r2
    1b62:	4463      	add	r3, ip
    1b64:	0019      	movs	r1, r3
    1b66:	9b04      	ldr	r3, [sp, #16]
    1b68:	0002      	movs	r2, r0
    1b6a:	0020      	movs	r0, r4
    1b6c:	4d1b      	ldr	r5, [pc, #108]	; (1bdc <prvTimerTask+0x160>)
    1b6e:	47a8      	blx	r5
    1b70:	2801      	cmp	r0, #1
    1b72:	d1db      	bne.n	1b2c <prvTimerTask+0xb0>
    1b74:	0020      	movs	r0, r4
    1b76:	6a63      	ldr	r3, [r4, #36]	; 0x24
    1b78:	4798      	blx	r3
    1b7a:	69e3      	ldr	r3, [r4, #28]
    1b7c:	2b01      	cmp	r3, #1
    1b7e:	d1d5      	bne.n	1b2c <prvTimerTask+0xb0>
    1b80:	9b04      	ldr	r3, [sp, #16]
    1b82:	69a1      	ldr	r1, [r4, #24]
    1b84:	468c      	mov	ip, r1
    1b86:	4463      	add	r3, ip
    1b88:	001a      	movs	r2, r3
    1b8a:	2300      	movs	r3, #0
    1b8c:	9300      	str	r3, [sp, #0]
    1b8e:	2100      	movs	r1, #0
    1b90:	0020      	movs	r0, r4
    1b92:	4c13      	ldr	r4, [pc, #76]	; (1be0 <prvTimerTask+0x164>)
    1b94:	47a0      	blx	r4
    1b96:	2800      	cmp	r0, #0
    1b98:	d1c8      	bne.n	1b2c <prvTimerTask+0xb0>
    1b9a:	b672      	cpsid	i
    1b9c:	e7fe      	b.n	1b9c <prvTimerTask+0x120>
    1b9e:	4b09      	ldr	r3, [pc, #36]	; (1bc4 <prvTimerTask+0x148>)
    1ba0:	4798      	blx	r3
    1ba2:	a803      	add	r0, sp, #12
    1ba4:	4b08      	ldr	r3, [pc, #32]	; (1bc8 <prvTimerTask+0x14c>)
    1ba6:	4798      	blx	r3
    1ba8:	0005      	movs	r5, r0
    1baa:	2400      	movs	r4, #0
    1bac:	9b03      	ldr	r3, [sp, #12]
    1bae:	2b00      	cmp	r3, #0
    1bb0:	d100      	bne.n	1bb4 <prvTimerTask+0x138>
    1bb2:	e77a      	b.n	1aaa <prvTimerTask+0x2e>
    1bb4:	4b07      	ldr	r3, [pc, #28]	; (1bd4 <prvTimerTask+0x158>)
    1bb6:	4798      	blx	r3
    1bb8:	e782      	b.n	1ac0 <prvTimerTask+0x44>
    1bba:	46c0      	nop			; (mov r8, r8)
    1bbc:	00000911 	.word	0x00000911
    1bc0:	20003bc8 	.word	0x20003bc8
    1bc4:	000011f9 	.word	0x000011f9
    1bc8:	000019c1 	.word	0x000019c1
    1bcc:	20003bfc 	.word	0x20003bfc
    1bd0:	00000ef5 	.word	0x00000ef5
    1bd4:	00001345 	.word	0x00001345
    1bd8:	00000729 	.word	0x00000729
    1bdc:	00001821 	.word	0x00001821
    1be0:	0000195d 	.word	0x0000195d
    1be4:	00000899 	.word	0x00000899
    1be8:	00000d7d 	.word	0x00000d7d

00001bec <sercom_set_gclk_generator>:
    1bec:	b510      	push	{r4, lr}
    1bee:	b082      	sub	sp, #8
    1bf0:	0004      	movs	r4, r0
    1bf2:	4b0e      	ldr	r3, [pc, #56]	; (1c2c <sercom_set_gclk_generator+0x40>)
    1bf4:	781b      	ldrb	r3, [r3, #0]
    1bf6:	2b00      	cmp	r3, #0
    1bf8:	d007      	beq.n	1c0a <sercom_set_gclk_generator+0x1e>
    1bfa:	2900      	cmp	r1, #0
    1bfc:	d105      	bne.n	1c0a <sercom_set_gclk_generator+0x1e>
    1bfe:	4b0b      	ldr	r3, [pc, #44]	; (1c2c <sercom_set_gclk_generator+0x40>)
    1c00:	785b      	ldrb	r3, [r3, #1]
    1c02:	4283      	cmp	r3, r0
    1c04:	d010      	beq.n	1c28 <sercom_set_gclk_generator+0x3c>
    1c06:	201d      	movs	r0, #29
    1c08:	e00c      	b.n	1c24 <sercom_set_gclk_generator+0x38>
    1c0a:	a901      	add	r1, sp, #4
    1c0c:	700c      	strb	r4, [r1, #0]
    1c0e:	2013      	movs	r0, #19
    1c10:	4b07      	ldr	r3, [pc, #28]	; (1c30 <sercom_set_gclk_generator+0x44>)
    1c12:	4798      	blx	r3
    1c14:	2013      	movs	r0, #19
    1c16:	4b07      	ldr	r3, [pc, #28]	; (1c34 <sercom_set_gclk_generator+0x48>)
    1c18:	4798      	blx	r3
    1c1a:	4b04      	ldr	r3, [pc, #16]	; (1c2c <sercom_set_gclk_generator+0x40>)
    1c1c:	705c      	strb	r4, [r3, #1]
    1c1e:	2201      	movs	r2, #1
    1c20:	701a      	strb	r2, [r3, #0]
    1c22:	2000      	movs	r0, #0
    1c24:	b002      	add	sp, #8
    1c26:	bd10      	pop	{r4, pc}
    1c28:	2000      	movs	r0, #0
    1c2a:	e7fb      	b.n	1c24 <sercom_set_gclk_generator+0x38>
    1c2c:	20003c00 	.word	0x20003c00
    1c30:	00002371 	.word	0x00002371
    1c34:	000022e5 	.word	0x000022e5

00001c38 <_sercom_get_default_pad>:
    1c38:	4b40      	ldr	r3, [pc, #256]	; (1d3c <_sercom_get_default_pad+0x104>)
    1c3a:	4298      	cmp	r0, r3
    1c3c:	d031      	beq.n	1ca2 <_sercom_get_default_pad+0x6a>
    1c3e:	d90a      	bls.n	1c56 <_sercom_get_default_pad+0x1e>
    1c40:	4b3f      	ldr	r3, [pc, #252]	; (1d40 <_sercom_get_default_pad+0x108>)
    1c42:	4298      	cmp	r0, r3
    1c44:	d04d      	beq.n	1ce2 <_sercom_get_default_pad+0xaa>
    1c46:	4b3f      	ldr	r3, [pc, #252]	; (1d44 <_sercom_get_default_pad+0x10c>)
    1c48:	4298      	cmp	r0, r3
    1c4a:	d05a      	beq.n	1d02 <_sercom_get_default_pad+0xca>
    1c4c:	4b3e      	ldr	r3, [pc, #248]	; (1d48 <_sercom_get_default_pad+0x110>)
    1c4e:	4298      	cmp	r0, r3
    1c50:	d037      	beq.n	1cc2 <_sercom_get_default_pad+0x8a>
    1c52:	2000      	movs	r0, #0
    1c54:	4770      	bx	lr
    1c56:	4b3d      	ldr	r3, [pc, #244]	; (1d4c <_sercom_get_default_pad+0x114>)
    1c58:	4298      	cmp	r0, r3
    1c5a:	d00c      	beq.n	1c76 <_sercom_get_default_pad+0x3e>
    1c5c:	4b3c      	ldr	r3, [pc, #240]	; (1d50 <_sercom_get_default_pad+0x118>)
    1c5e:	4298      	cmp	r0, r3
    1c60:	d1f7      	bne.n	1c52 <_sercom_get_default_pad+0x1a>
    1c62:	2901      	cmp	r1, #1
    1c64:	d017      	beq.n	1c96 <_sercom_get_default_pad+0x5e>
    1c66:	2900      	cmp	r1, #0
    1c68:	d05d      	beq.n	1d26 <_sercom_get_default_pad+0xee>
    1c6a:	2902      	cmp	r1, #2
    1c6c:	d015      	beq.n	1c9a <_sercom_get_default_pad+0x62>
    1c6e:	2903      	cmp	r1, #3
    1c70:	d015      	beq.n	1c9e <_sercom_get_default_pad+0x66>
    1c72:	2000      	movs	r0, #0
    1c74:	e7ee      	b.n	1c54 <_sercom_get_default_pad+0x1c>
    1c76:	2901      	cmp	r1, #1
    1c78:	d007      	beq.n	1c8a <_sercom_get_default_pad+0x52>
    1c7a:	2900      	cmp	r1, #0
    1c7c:	d051      	beq.n	1d22 <_sercom_get_default_pad+0xea>
    1c7e:	2902      	cmp	r1, #2
    1c80:	d005      	beq.n	1c8e <_sercom_get_default_pad+0x56>
    1c82:	2903      	cmp	r1, #3
    1c84:	d005      	beq.n	1c92 <_sercom_get_default_pad+0x5a>
    1c86:	2000      	movs	r0, #0
    1c88:	e7e4      	b.n	1c54 <_sercom_get_default_pad+0x1c>
    1c8a:	4832      	ldr	r0, [pc, #200]	; (1d54 <_sercom_get_default_pad+0x11c>)
    1c8c:	e7e2      	b.n	1c54 <_sercom_get_default_pad+0x1c>
    1c8e:	4832      	ldr	r0, [pc, #200]	; (1d58 <_sercom_get_default_pad+0x120>)
    1c90:	e7e0      	b.n	1c54 <_sercom_get_default_pad+0x1c>
    1c92:	4832      	ldr	r0, [pc, #200]	; (1d5c <_sercom_get_default_pad+0x124>)
    1c94:	e7de      	b.n	1c54 <_sercom_get_default_pad+0x1c>
    1c96:	4832      	ldr	r0, [pc, #200]	; (1d60 <_sercom_get_default_pad+0x128>)
    1c98:	e7dc      	b.n	1c54 <_sercom_get_default_pad+0x1c>
    1c9a:	4832      	ldr	r0, [pc, #200]	; (1d64 <_sercom_get_default_pad+0x12c>)
    1c9c:	e7da      	b.n	1c54 <_sercom_get_default_pad+0x1c>
    1c9e:	4832      	ldr	r0, [pc, #200]	; (1d68 <_sercom_get_default_pad+0x130>)
    1ca0:	e7d8      	b.n	1c54 <_sercom_get_default_pad+0x1c>
    1ca2:	2901      	cmp	r1, #1
    1ca4:	d007      	beq.n	1cb6 <_sercom_get_default_pad+0x7e>
    1ca6:	2900      	cmp	r1, #0
    1ca8:	d03f      	beq.n	1d2a <_sercom_get_default_pad+0xf2>
    1caa:	2902      	cmp	r1, #2
    1cac:	d005      	beq.n	1cba <_sercom_get_default_pad+0x82>
    1cae:	2903      	cmp	r1, #3
    1cb0:	d005      	beq.n	1cbe <_sercom_get_default_pad+0x86>
    1cb2:	2000      	movs	r0, #0
    1cb4:	e7ce      	b.n	1c54 <_sercom_get_default_pad+0x1c>
    1cb6:	482d      	ldr	r0, [pc, #180]	; (1d6c <_sercom_get_default_pad+0x134>)
    1cb8:	e7cc      	b.n	1c54 <_sercom_get_default_pad+0x1c>
    1cba:	482d      	ldr	r0, [pc, #180]	; (1d70 <_sercom_get_default_pad+0x138>)
    1cbc:	e7ca      	b.n	1c54 <_sercom_get_default_pad+0x1c>
    1cbe:	482d      	ldr	r0, [pc, #180]	; (1d74 <_sercom_get_default_pad+0x13c>)
    1cc0:	e7c8      	b.n	1c54 <_sercom_get_default_pad+0x1c>
    1cc2:	2901      	cmp	r1, #1
    1cc4:	d007      	beq.n	1cd6 <_sercom_get_default_pad+0x9e>
    1cc6:	2900      	cmp	r1, #0
    1cc8:	d031      	beq.n	1d2e <_sercom_get_default_pad+0xf6>
    1cca:	2902      	cmp	r1, #2
    1ccc:	d005      	beq.n	1cda <_sercom_get_default_pad+0xa2>
    1cce:	2903      	cmp	r1, #3
    1cd0:	d005      	beq.n	1cde <_sercom_get_default_pad+0xa6>
    1cd2:	2000      	movs	r0, #0
    1cd4:	e7be      	b.n	1c54 <_sercom_get_default_pad+0x1c>
    1cd6:	4828      	ldr	r0, [pc, #160]	; (1d78 <_sercom_get_default_pad+0x140>)
    1cd8:	e7bc      	b.n	1c54 <_sercom_get_default_pad+0x1c>
    1cda:	4828      	ldr	r0, [pc, #160]	; (1d7c <_sercom_get_default_pad+0x144>)
    1cdc:	e7ba      	b.n	1c54 <_sercom_get_default_pad+0x1c>
    1cde:	4828      	ldr	r0, [pc, #160]	; (1d80 <_sercom_get_default_pad+0x148>)
    1ce0:	e7b8      	b.n	1c54 <_sercom_get_default_pad+0x1c>
    1ce2:	2901      	cmp	r1, #1
    1ce4:	d007      	beq.n	1cf6 <_sercom_get_default_pad+0xbe>
    1ce6:	2900      	cmp	r1, #0
    1ce8:	d023      	beq.n	1d32 <_sercom_get_default_pad+0xfa>
    1cea:	2902      	cmp	r1, #2
    1cec:	d005      	beq.n	1cfa <_sercom_get_default_pad+0xc2>
    1cee:	2903      	cmp	r1, #3
    1cf0:	d005      	beq.n	1cfe <_sercom_get_default_pad+0xc6>
    1cf2:	2000      	movs	r0, #0
    1cf4:	e7ae      	b.n	1c54 <_sercom_get_default_pad+0x1c>
    1cf6:	4823      	ldr	r0, [pc, #140]	; (1d84 <_sercom_get_default_pad+0x14c>)
    1cf8:	e7ac      	b.n	1c54 <_sercom_get_default_pad+0x1c>
    1cfa:	4823      	ldr	r0, [pc, #140]	; (1d88 <_sercom_get_default_pad+0x150>)
    1cfc:	e7aa      	b.n	1c54 <_sercom_get_default_pad+0x1c>
    1cfe:	4823      	ldr	r0, [pc, #140]	; (1d8c <_sercom_get_default_pad+0x154>)
    1d00:	e7a8      	b.n	1c54 <_sercom_get_default_pad+0x1c>
    1d02:	2901      	cmp	r1, #1
    1d04:	d007      	beq.n	1d16 <_sercom_get_default_pad+0xde>
    1d06:	2900      	cmp	r1, #0
    1d08:	d015      	beq.n	1d36 <_sercom_get_default_pad+0xfe>
    1d0a:	2902      	cmp	r1, #2
    1d0c:	d005      	beq.n	1d1a <_sercom_get_default_pad+0xe2>
    1d0e:	2903      	cmp	r1, #3
    1d10:	d005      	beq.n	1d1e <_sercom_get_default_pad+0xe6>
    1d12:	2000      	movs	r0, #0
    1d14:	e79e      	b.n	1c54 <_sercom_get_default_pad+0x1c>
    1d16:	481e      	ldr	r0, [pc, #120]	; (1d90 <_sercom_get_default_pad+0x158>)
    1d18:	e79c      	b.n	1c54 <_sercom_get_default_pad+0x1c>
    1d1a:	481e      	ldr	r0, [pc, #120]	; (1d94 <_sercom_get_default_pad+0x15c>)
    1d1c:	e79a      	b.n	1c54 <_sercom_get_default_pad+0x1c>
    1d1e:	481e      	ldr	r0, [pc, #120]	; (1d98 <_sercom_get_default_pad+0x160>)
    1d20:	e798      	b.n	1c54 <_sercom_get_default_pad+0x1c>
    1d22:	481e      	ldr	r0, [pc, #120]	; (1d9c <_sercom_get_default_pad+0x164>)
    1d24:	e796      	b.n	1c54 <_sercom_get_default_pad+0x1c>
    1d26:	2003      	movs	r0, #3
    1d28:	e794      	b.n	1c54 <_sercom_get_default_pad+0x1c>
    1d2a:	481d      	ldr	r0, [pc, #116]	; (1da0 <_sercom_get_default_pad+0x168>)
    1d2c:	e792      	b.n	1c54 <_sercom_get_default_pad+0x1c>
    1d2e:	481d      	ldr	r0, [pc, #116]	; (1da4 <_sercom_get_default_pad+0x16c>)
    1d30:	e790      	b.n	1c54 <_sercom_get_default_pad+0x1c>
    1d32:	481d      	ldr	r0, [pc, #116]	; (1da8 <_sercom_get_default_pad+0x170>)
    1d34:	e78e      	b.n	1c54 <_sercom_get_default_pad+0x1c>
    1d36:	481d      	ldr	r0, [pc, #116]	; (1dac <_sercom_get_default_pad+0x174>)
    1d38:	e78c      	b.n	1c54 <_sercom_get_default_pad+0x1c>
    1d3a:	46c0      	nop			; (mov r8, r8)
    1d3c:	42001000 	.word	0x42001000
    1d40:	42001800 	.word	0x42001800
    1d44:	42001c00 	.word	0x42001c00
    1d48:	42001400 	.word	0x42001400
    1d4c:	42000800 	.word	0x42000800
    1d50:	42000c00 	.word	0x42000c00
    1d54:	00050003 	.word	0x00050003
    1d58:	00060003 	.word	0x00060003
    1d5c:	00070003 	.word	0x00070003
    1d60:	00010003 	.word	0x00010003
    1d64:	001e0003 	.word	0x001e0003
    1d68:	001f0003 	.word	0x001f0003
    1d6c:	00090003 	.word	0x00090003
    1d70:	000a0003 	.word	0x000a0003
    1d74:	000b0003 	.word	0x000b0003
    1d78:	00110003 	.word	0x00110003
    1d7c:	00120003 	.word	0x00120003
    1d80:	00130003 	.word	0x00130003
    1d84:	000d0003 	.word	0x000d0003
    1d88:	000e0003 	.word	0x000e0003
    1d8c:	000f0003 	.word	0x000f0003
    1d90:	00170003 	.word	0x00170003
    1d94:	00180003 	.word	0x00180003
    1d98:	00190003 	.word	0x00190003
    1d9c:	00040003 	.word	0x00040003
    1da0:	00080003 	.word	0x00080003
    1da4:	00100003 	.word	0x00100003
    1da8:	000c0003 	.word	0x000c0003
    1dac:	00160003 	.word	0x00160003

00001db0 <_sercom_get_sercom_inst_index>:
    1db0:	b530      	push	{r4, r5, lr}
    1db2:	b087      	sub	sp, #28
    1db4:	4b0b      	ldr	r3, [pc, #44]	; (1de4 <_sercom_get_sercom_inst_index+0x34>)
    1db6:	466a      	mov	r2, sp
    1db8:	cb32      	ldmia	r3!, {r1, r4, r5}
    1dba:	c232      	stmia	r2!, {r1, r4, r5}
    1dbc:	cb32      	ldmia	r3!, {r1, r4, r5}
    1dbe:	c232      	stmia	r2!, {r1, r4, r5}
    1dc0:	9b00      	ldr	r3, [sp, #0]
    1dc2:	4283      	cmp	r3, r0
    1dc4:	d00b      	beq.n	1dde <_sercom_get_sercom_inst_index+0x2e>
    1dc6:	2301      	movs	r3, #1
    1dc8:	009a      	lsls	r2, r3, #2
    1dca:	4669      	mov	r1, sp
    1dcc:	5852      	ldr	r2, [r2, r1]
    1dce:	4282      	cmp	r2, r0
    1dd0:	d006      	beq.n	1de0 <_sercom_get_sercom_inst_index+0x30>
    1dd2:	3301      	adds	r3, #1
    1dd4:	2b06      	cmp	r3, #6
    1dd6:	d1f7      	bne.n	1dc8 <_sercom_get_sercom_inst_index+0x18>
    1dd8:	2000      	movs	r0, #0
    1dda:	b007      	add	sp, #28
    1ddc:	bd30      	pop	{r4, r5, pc}
    1dde:	2300      	movs	r3, #0
    1de0:	b2d8      	uxtb	r0, r3
    1de2:	e7fa      	b.n	1dda <_sercom_get_sercom_inst_index+0x2a>
    1de4:	00004198 	.word	0x00004198

00001de8 <_sercom_default_handler>:
    1de8:	4770      	bx	lr
	...

00001dec <_sercom_set_handler>:
    1dec:	b5f0      	push	{r4, r5, r6, r7, lr}
    1dee:	4b0a      	ldr	r3, [pc, #40]	; (1e18 <_sercom_set_handler+0x2c>)
    1df0:	781b      	ldrb	r3, [r3, #0]
    1df2:	2b00      	cmp	r3, #0
    1df4:	d10c      	bne.n	1e10 <_sercom_set_handler+0x24>
    1df6:	4f09      	ldr	r7, [pc, #36]	; (1e1c <_sercom_set_handler+0x30>)
    1df8:	4e09      	ldr	r6, [pc, #36]	; (1e20 <_sercom_set_handler+0x34>)
    1dfa:	4d0a      	ldr	r5, [pc, #40]	; (1e24 <_sercom_set_handler+0x38>)
    1dfc:	2400      	movs	r4, #0
    1dfe:	51de      	str	r6, [r3, r7]
    1e00:	195a      	adds	r2, r3, r5
    1e02:	6014      	str	r4, [r2, #0]
    1e04:	3304      	adds	r3, #4
    1e06:	2b18      	cmp	r3, #24
    1e08:	d1f9      	bne.n	1dfe <_sercom_set_handler+0x12>
    1e0a:	2201      	movs	r2, #1
    1e0c:	4b02      	ldr	r3, [pc, #8]	; (1e18 <_sercom_set_handler+0x2c>)
    1e0e:	701a      	strb	r2, [r3, #0]
    1e10:	0080      	lsls	r0, r0, #2
    1e12:	4b02      	ldr	r3, [pc, #8]	; (1e1c <_sercom_set_handler+0x30>)
    1e14:	50c1      	str	r1, [r0, r3]
    1e16:	bdf0      	pop	{r4, r5, r6, r7, pc}
    1e18:	20003c02 	.word	0x20003c02
    1e1c:	20003c04 	.word	0x20003c04
    1e20:	00001de9 	.word	0x00001de9
    1e24:	20003c3c 	.word	0x20003c3c

00001e28 <_sercom_get_interrupt_vector>:
    1e28:	b500      	push	{lr}
    1e2a:	b083      	sub	sp, #12
    1e2c:	2309      	movs	r3, #9
    1e2e:	466a      	mov	r2, sp
    1e30:	7013      	strb	r3, [r2, #0]
    1e32:	3301      	adds	r3, #1
    1e34:	7053      	strb	r3, [r2, #1]
    1e36:	3301      	adds	r3, #1
    1e38:	7093      	strb	r3, [r2, #2]
    1e3a:	3301      	adds	r3, #1
    1e3c:	70d3      	strb	r3, [r2, #3]
    1e3e:	3301      	adds	r3, #1
    1e40:	7113      	strb	r3, [r2, #4]
    1e42:	3301      	adds	r3, #1
    1e44:	7153      	strb	r3, [r2, #5]
    1e46:	4b03      	ldr	r3, [pc, #12]	; (1e54 <_sercom_get_interrupt_vector+0x2c>)
    1e48:	4798      	blx	r3
    1e4a:	466b      	mov	r3, sp
    1e4c:	5618      	ldrsb	r0, [r3, r0]
    1e4e:	b003      	add	sp, #12
    1e50:	bd00      	pop	{pc}
    1e52:	46c0      	nop			; (mov r8, r8)
    1e54:	00001db1 	.word	0x00001db1

00001e58 <SERCOM0_Handler>:
    1e58:	b510      	push	{r4, lr}
    1e5a:	4b02      	ldr	r3, [pc, #8]	; (1e64 <SERCOM0_Handler+0xc>)
    1e5c:	681b      	ldr	r3, [r3, #0]
    1e5e:	2000      	movs	r0, #0
    1e60:	4798      	blx	r3
    1e62:	bd10      	pop	{r4, pc}
    1e64:	20003c04 	.word	0x20003c04

00001e68 <SERCOM1_Handler>:
    1e68:	b510      	push	{r4, lr}
    1e6a:	4b02      	ldr	r3, [pc, #8]	; (1e74 <SERCOM1_Handler+0xc>)
    1e6c:	685b      	ldr	r3, [r3, #4]
    1e6e:	2001      	movs	r0, #1
    1e70:	4798      	blx	r3
    1e72:	bd10      	pop	{r4, pc}
    1e74:	20003c04 	.word	0x20003c04

00001e78 <SERCOM2_Handler>:
    1e78:	b510      	push	{r4, lr}
    1e7a:	4b02      	ldr	r3, [pc, #8]	; (1e84 <SERCOM2_Handler+0xc>)
    1e7c:	689b      	ldr	r3, [r3, #8]
    1e7e:	2002      	movs	r0, #2
    1e80:	4798      	blx	r3
    1e82:	bd10      	pop	{r4, pc}
    1e84:	20003c04 	.word	0x20003c04

00001e88 <SERCOM3_Handler>:
    1e88:	b510      	push	{r4, lr}
    1e8a:	4b02      	ldr	r3, [pc, #8]	; (1e94 <SERCOM3_Handler+0xc>)
    1e8c:	68db      	ldr	r3, [r3, #12]
    1e8e:	2003      	movs	r0, #3
    1e90:	4798      	blx	r3
    1e92:	bd10      	pop	{r4, pc}
    1e94:	20003c04 	.word	0x20003c04

00001e98 <SERCOM4_Handler>:
    1e98:	b510      	push	{r4, lr}
    1e9a:	4b02      	ldr	r3, [pc, #8]	; (1ea4 <SERCOM4_Handler+0xc>)
    1e9c:	691b      	ldr	r3, [r3, #16]
    1e9e:	2004      	movs	r0, #4
    1ea0:	4798      	blx	r3
    1ea2:	bd10      	pop	{r4, pc}
    1ea4:	20003c04 	.word	0x20003c04

00001ea8 <SERCOM5_Handler>:
    1ea8:	b510      	push	{r4, lr}
    1eaa:	4b02      	ldr	r3, [pc, #8]	; (1eb4 <SERCOM5_Handler+0xc>)
    1eac:	695b      	ldr	r3, [r3, #20]
    1eae:	2005      	movs	r0, #5
    1eb0:	4798      	blx	r3
    1eb2:	bd10      	pop	{r4, pc}
    1eb4:	20003c04 	.word	0x20003c04

00001eb8 <system_board_init>:
    1eb8:	4770      	bx	lr
	...

00001ebc <cpu_irq_enter_critical>:
    1ebc:	4b0c      	ldr	r3, [pc, #48]	; (1ef0 <cpu_irq_enter_critical+0x34>)
    1ebe:	681b      	ldr	r3, [r3, #0]
    1ec0:	2b00      	cmp	r3, #0
    1ec2:	d106      	bne.n	1ed2 <cpu_irq_enter_critical+0x16>
    1ec4:	f3ef 8310 	mrs	r3, PRIMASK
    1ec8:	2b00      	cmp	r3, #0
    1eca:	d007      	beq.n	1edc <cpu_irq_enter_critical+0x20>
    1ecc:	2200      	movs	r2, #0
    1ece:	4b09      	ldr	r3, [pc, #36]	; (1ef4 <cpu_irq_enter_critical+0x38>)
    1ed0:	701a      	strb	r2, [r3, #0]
    1ed2:	4a07      	ldr	r2, [pc, #28]	; (1ef0 <cpu_irq_enter_critical+0x34>)
    1ed4:	6813      	ldr	r3, [r2, #0]
    1ed6:	3301      	adds	r3, #1
    1ed8:	6013      	str	r3, [r2, #0]
    1eda:	4770      	bx	lr
    1edc:	b672      	cpsid	i
    1ede:	f3bf 8f5f 	dmb	sy
    1ee2:	2200      	movs	r2, #0
    1ee4:	4b04      	ldr	r3, [pc, #16]	; (1ef8 <cpu_irq_enter_critical+0x3c>)
    1ee6:	701a      	strb	r2, [r3, #0]
    1ee8:	3201      	adds	r2, #1
    1eea:	4b02      	ldr	r3, [pc, #8]	; (1ef4 <cpu_irq_enter_critical+0x38>)
    1eec:	701a      	strb	r2, [r3, #0]
    1eee:	e7f0      	b.n	1ed2 <cpu_irq_enter_critical+0x16>
    1ef0:	20003c1c 	.word	0x20003c1c
    1ef4:	20003c20 	.word	0x20003c20
    1ef8:	20000008 	.word	0x20000008

00001efc <cpu_irq_leave_critical>:
    1efc:	4b08      	ldr	r3, [pc, #32]	; (1f20 <cpu_irq_leave_critical+0x24>)
    1efe:	681a      	ldr	r2, [r3, #0]
    1f00:	3a01      	subs	r2, #1
    1f02:	601a      	str	r2, [r3, #0]
    1f04:	681b      	ldr	r3, [r3, #0]
    1f06:	2b00      	cmp	r3, #0
    1f08:	d109      	bne.n	1f1e <cpu_irq_leave_critical+0x22>
    1f0a:	4b06      	ldr	r3, [pc, #24]	; (1f24 <cpu_irq_leave_critical+0x28>)
    1f0c:	781b      	ldrb	r3, [r3, #0]
    1f0e:	2b00      	cmp	r3, #0
    1f10:	d005      	beq.n	1f1e <cpu_irq_leave_critical+0x22>
    1f12:	2201      	movs	r2, #1
    1f14:	4b04      	ldr	r3, [pc, #16]	; (1f28 <cpu_irq_leave_critical+0x2c>)
    1f16:	701a      	strb	r2, [r3, #0]
    1f18:	f3bf 8f5f 	dmb	sy
    1f1c:	b662      	cpsie	i
    1f1e:	4770      	bx	lr
    1f20:	20003c1c 	.word	0x20003c1c
    1f24:	20003c20 	.word	0x20003c20
    1f28:	20000008 	.word	0x20000008

00001f2c <system_clock_source_get_hz>:
    1f2c:	b510      	push	{r4, lr}
    1f2e:	2808      	cmp	r0, #8
    1f30:	d803      	bhi.n	1f3a <system_clock_source_get_hz+0xe>
    1f32:	0080      	lsls	r0, r0, #2
    1f34:	4b1b      	ldr	r3, [pc, #108]	; (1fa4 <system_clock_source_get_hz+0x78>)
    1f36:	581b      	ldr	r3, [r3, r0]
    1f38:	469f      	mov	pc, r3
    1f3a:	2000      	movs	r0, #0
    1f3c:	e030      	b.n	1fa0 <system_clock_source_get_hz+0x74>
    1f3e:	4b1a      	ldr	r3, [pc, #104]	; (1fa8 <system_clock_source_get_hz+0x7c>)
    1f40:	6918      	ldr	r0, [r3, #16]
    1f42:	e02d      	b.n	1fa0 <system_clock_source_get_hz+0x74>
    1f44:	4b19      	ldr	r3, [pc, #100]	; (1fac <system_clock_source_get_hz+0x80>)
    1f46:	6a1b      	ldr	r3, [r3, #32]
    1f48:	059b      	lsls	r3, r3, #22
    1f4a:	0f9b      	lsrs	r3, r3, #30
    1f4c:	4818      	ldr	r0, [pc, #96]	; (1fb0 <system_clock_source_get_hz+0x84>)
    1f4e:	40d8      	lsrs	r0, r3
    1f50:	e026      	b.n	1fa0 <system_clock_source_get_hz+0x74>
    1f52:	4b15      	ldr	r3, [pc, #84]	; (1fa8 <system_clock_source_get_hz+0x7c>)
    1f54:	6958      	ldr	r0, [r3, #20]
    1f56:	e023      	b.n	1fa0 <system_clock_source_get_hz+0x74>
    1f58:	4b13      	ldr	r3, [pc, #76]	; (1fa8 <system_clock_source_get_hz+0x7c>)
    1f5a:	681b      	ldr	r3, [r3, #0]
    1f5c:	2000      	movs	r0, #0
    1f5e:	079b      	lsls	r3, r3, #30
    1f60:	d51e      	bpl.n	1fa0 <system_clock_source_get_hz+0x74>
    1f62:	4912      	ldr	r1, [pc, #72]	; (1fac <system_clock_source_get_hz+0x80>)
    1f64:	2210      	movs	r2, #16
    1f66:	68cb      	ldr	r3, [r1, #12]
    1f68:	421a      	tst	r2, r3
    1f6a:	d0fc      	beq.n	1f66 <system_clock_source_get_hz+0x3a>
    1f6c:	4b0e      	ldr	r3, [pc, #56]	; (1fa8 <system_clock_source_get_hz+0x7c>)
    1f6e:	681b      	ldr	r3, [r3, #0]
    1f70:	075b      	lsls	r3, r3, #29
    1f72:	d401      	bmi.n	1f78 <system_clock_source_get_hz+0x4c>
    1f74:	480f      	ldr	r0, [pc, #60]	; (1fb4 <system_clock_source_get_hz+0x88>)
    1f76:	e013      	b.n	1fa0 <system_clock_source_get_hz+0x74>
    1f78:	2000      	movs	r0, #0
    1f7a:	4b0f      	ldr	r3, [pc, #60]	; (1fb8 <system_clock_source_get_hz+0x8c>)
    1f7c:	4798      	blx	r3
    1f7e:	4b0a      	ldr	r3, [pc, #40]	; (1fa8 <system_clock_source_get_hz+0x7c>)
    1f80:	689b      	ldr	r3, [r3, #8]
    1f82:	041b      	lsls	r3, r3, #16
    1f84:	0c1b      	lsrs	r3, r3, #16
    1f86:	4358      	muls	r0, r3
    1f88:	e00a      	b.n	1fa0 <system_clock_source_get_hz+0x74>
    1f8a:	2350      	movs	r3, #80	; 0x50
    1f8c:	4a07      	ldr	r2, [pc, #28]	; (1fac <system_clock_source_get_hz+0x80>)
    1f8e:	5cd3      	ldrb	r3, [r2, r3]
    1f90:	2000      	movs	r0, #0
    1f92:	075b      	lsls	r3, r3, #29
    1f94:	d504      	bpl.n	1fa0 <system_clock_source_get_hz+0x74>
    1f96:	4b04      	ldr	r3, [pc, #16]	; (1fa8 <system_clock_source_get_hz+0x7c>)
    1f98:	68d8      	ldr	r0, [r3, #12]
    1f9a:	e001      	b.n	1fa0 <system_clock_source_get_hz+0x74>
    1f9c:	2080      	movs	r0, #128	; 0x80
    1f9e:	0200      	lsls	r0, r0, #8
    1fa0:	bd10      	pop	{r4, pc}
    1fa2:	46c0      	nop			; (mov r8, r8)
    1fa4:	000041b0 	.word	0x000041b0
    1fa8:	20003c24 	.word	0x20003c24
    1fac:	40000800 	.word	0x40000800
    1fb0:	007a1200 	.word	0x007a1200
    1fb4:	02dc6c00 	.word	0x02dc6c00
    1fb8:	0000238d 	.word	0x0000238d

00001fbc <system_clock_source_osc8m_set_config>:
    1fbc:	b570      	push	{r4, r5, r6, lr}
    1fbe:	490c      	ldr	r1, [pc, #48]	; (1ff0 <system_clock_source_osc8m_set_config+0x34>)
    1fc0:	6a0b      	ldr	r3, [r1, #32]
    1fc2:	7804      	ldrb	r4, [r0, #0]
    1fc4:	7885      	ldrb	r5, [r0, #2]
    1fc6:	7840      	ldrb	r0, [r0, #1]
    1fc8:	2201      	movs	r2, #1
    1fca:	4010      	ands	r0, r2
    1fcc:	0180      	lsls	r0, r0, #6
    1fce:	2640      	movs	r6, #64	; 0x40
    1fd0:	43b3      	bics	r3, r6
    1fd2:	4303      	orrs	r3, r0
    1fd4:	402a      	ands	r2, r5
    1fd6:	01d2      	lsls	r2, r2, #7
    1fd8:	2080      	movs	r0, #128	; 0x80
    1fda:	4383      	bics	r3, r0
    1fdc:	4313      	orrs	r3, r2
    1fde:	2203      	movs	r2, #3
    1fe0:	4022      	ands	r2, r4
    1fe2:	0212      	lsls	r2, r2, #8
    1fe4:	4803      	ldr	r0, [pc, #12]	; (1ff4 <system_clock_source_osc8m_set_config+0x38>)
    1fe6:	4003      	ands	r3, r0
    1fe8:	4313      	orrs	r3, r2
    1fea:	620b      	str	r3, [r1, #32]
    1fec:	bd70      	pop	{r4, r5, r6, pc}
    1fee:	46c0      	nop			; (mov r8, r8)
    1ff0:	40000800 	.word	0x40000800
    1ff4:	fffffcff 	.word	0xfffffcff

00001ff8 <system_clock_source_enable>:
    1ff8:	2808      	cmp	r0, #8
    1ffa:	d803      	bhi.n	2004 <STACK_SIZE+0x4>
    1ffc:	0080      	lsls	r0, r0, #2
    1ffe:	4b25      	ldr	r3, [pc, #148]	; (2094 <STACK_SIZE+0x94>)
    2000:	581b      	ldr	r3, [r3, r0]
    2002:	469f      	mov	pc, r3
    2004:	2017      	movs	r0, #23
    2006:	e044      	b.n	2092 <STACK_SIZE+0x92>
    2008:	4a23      	ldr	r2, [pc, #140]	; (2098 <STACK_SIZE+0x98>)
    200a:	6a13      	ldr	r3, [r2, #32]
    200c:	2102      	movs	r1, #2
    200e:	430b      	orrs	r3, r1
    2010:	6213      	str	r3, [r2, #32]
    2012:	2000      	movs	r0, #0
    2014:	e03d      	b.n	2092 <STACK_SIZE+0x92>
    2016:	4a20      	ldr	r2, [pc, #128]	; (2098 <STACK_SIZE+0x98>)
    2018:	6993      	ldr	r3, [r2, #24]
    201a:	2102      	movs	r1, #2
    201c:	430b      	orrs	r3, r1
    201e:	6193      	str	r3, [r2, #24]
    2020:	2000      	movs	r0, #0
    2022:	e036      	b.n	2092 <STACK_SIZE+0x92>
    2024:	4a1c      	ldr	r2, [pc, #112]	; (2098 <STACK_SIZE+0x98>)
    2026:	8a13      	ldrh	r3, [r2, #16]
    2028:	2102      	movs	r1, #2
    202a:	430b      	orrs	r3, r1
    202c:	8213      	strh	r3, [r2, #16]
    202e:	2000      	movs	r0, #0
    2030:	e02f      	b.n	2092 <STACK_SIZE+0x92>
    2032:	4a19      	ldr	r2, [pc, #100]	; (2098 <STACK_SIZE+0x98>)
    2034:	8a93      	ldrh	r3, [r2, #20]
    2036:	2102      	movs	r1, #2
    2038:	430b      	orrs	r3, r1
    203a:	8293      	strh	r3, [r2, #20]
    203c:	2000      	movs	r0, #0
    203e:	e028      	b.n	2092 <STACK_SIZE+0x92>
    2040:	4916      	ldr	r1, [pc, #88]	; (209c <STACK_SIZE+0x9c>)
    2042:	680b      	ldr	r3, [r1, #0]
    2044:	2202      	movs	r2, #2
    2046:	4313      	orrs	r3, r2
    2048:	600b      	str	r3, [r1, #0]
    204a:	4b13      	ldr	r3, [pc, #76]	; (2098 <STACK_SIZE+0x98>)
    204c:	849a      	strh	r2, [r3, #36]	; 0x24
    204e:	0019      	movs	r1, r3
    2050:	320e      	adds	r2, #14
    2052:	68cb      	ldr	r3, [r1, #12]
    2054:	421a      	tst	r2, r3
    2056:	d0fc      	beq.n	2052 <STACK_SIZE+0x52>
    2058:	4a10      	ldr	r2, [pc, #64]	; (209c <STACK_SIZE+0x9c>)
    205a:	6891      	ldr	r1, [r2, #8]
    205c:	4b0e      	ldr	r3, [pc, #56]	; (2098 <STACK_SIZE+0x98>)
    205e:	62d9      	str	r1, [r3, #44]	; 0x2c
    2060:	6852      	ldr	r2, [r2, #4]
    2062:	629a      	str	r2, [r3, #40]	; 0x28
    2064:	2200      	movs	r2, #0
    2066:	849a      	strh	r2, [r3, #36]	; 0x24
    2068:	0019      	movs	r1, r3
    206a:	3210      	adds	r2, #16
    206c:	68cb      	ldr	r3, [r1, #12]
    206e:	421a      	tst	r2, r3
    2070:	d0fc      	beq.n	206c <STACK_SIZE+0x6c>
    2072:	4b0a      	ldr	r3, [pc, #40]	; (209c <STACK_SIZE+0x9c>)
    2074:	681b      	ldr	r3, [r3, #0]
    2076:	b29b      	uxth	r3, r3
    2078:	4a07      	ldr	r2, [pc, #28]	; (2098 <STACK_SIZE+0x98>)
    207a:	8493      	strh	r3, [r2, #36]	; 0x24
    207c:	2000      	movs	r0, #0
    207e:	e008      	b.n	2092 <STACK_SIZE+0x92>
    2080:	4905      	ldr	r1, [pc, #20]	; (2098 <STACK_SIZE+0x98>)
    2082:	2244      	movs	r2, #68	; 0x44
    2084:	5c8b      	ldrb	r3, [r1, r2]
    2086:	2002      	movs	r0, #2
    2088:	4303      	orrs	r3, r0
    208a:	548b      	strb	r3, [r1, r2]
    208c:	2000      	movs	r0, #0
    208e:	e000      	b.n	2092 <STACK_SIZE+0x92>
    2090:	2000      	movs	r0, #0
    2092:	4770      	bx	lr
    2094:	000041d4 	.word	0x000041d4
    2098:	40000800 	.word	0x40000800
    209c:	20003c24 	.word	0x20003c24

000020a0 <system_clock_init>:
    20a0:	b530      	push	{r4, r5, lr}
    20a2:	b085      	sub	sp, #20
    20a4:	22c2      	movs	r2, #194	; 0xc2
    20a6:	00d2      	lsls	r2, r2, #3
    20a8:	4b1a      	ldr	r3, [pc, #104]	; (2114 <system_clock_init+0x74>)
    20aa:	609a      	str	r2, [r3, #8]
    20ac:	4a1a      	ldr	r2, [pc, #104]	; (2118 <system_clock_init+0x78>)
    20ae:	6853      	ldr	r3, [r2, #4]
    20b0:	211e      	movs	r1, #30
    20b2:	438b      	bics	r3, r1
    20b4:	6053      	str	r3, [r2, #4]
    20b6:	2301      	movs	r3, #1
    20b8:	466a      	mov	r2, sp
    20ba:	7013      	strb	r3, [r2, #0]
    20bc:	2400      	movs	r4, #0
    20be:	4d17      	ldr	r5, [pc, #92]	; (211c <system_clock_init+0x7c>)
    20c0:	b2e0      	uxtb	r0, r4
    20c2:	4669      	mov	r1, sp
    20c4:	47a8      	blx	r5
    20c6:	3401      	adds	r4, #1
    20c8:	2c25      	cmp	r4, #37	; 0x25
    20ca:	d1f9      	bne.n	20c0 <system_clock_init+0x20>
    20cc:	a803      	add	r0, sp, #12
    20ce:	2400      	movs	r4, #0
    20d0:	7044      	strb	r4, [r0, #1]
    20d2:	2501      	movs	r5, #1
    20d4:	7085      	strb	r5, [r0, #2]
    20d6:	7004      	strb	r4, [r0, #0]
    20d8:	4b11      	ldr	r3, [pc, #68]	; (2120 <system_clock_init+0x80>)
    20da:	4798      	blx	r3
    20dc:	2006      	movs	r0, #6
    20de:	4b11      	ldr	r3, [pc, #68]	; (2124 <system_clock_init+0x84>)
    20e0:	4798      	blx	r3
    20e2:	4b11      	ldr	r3, [pc, #68]	; (2128 <system_clock_init+0x88>)
    20e4:	4798      	blx	r3
    20e6:	4b11      	ldr	r3, [pc, #68]	; (212c <system_clock_init+0x8c>)
    20e8:	721c      	strb	r4, [r3, #8]
    20ea:	725c      	strb	r4, [r3, #9]
    20ec:	729c      	strb	r4, [r3, #10]
    20ee:	72dc      	strb	r4, [r3, #11]
    20f0:	9501      	str	r5, [sp, #4]
    20f2:	466b      	mov	r3, sp
    20f4:	705c      	strb	r4, [r3, #1]
    20f6:	2306      	movs	r3, #6
    20f8:	466a      	mov	r2, sp
    20fa:	7013      	strb	r3, [r2, #0]
    20fc:	7214      	strb	r4, [r2, #8]
    20fe:	7254      	strb	r4, [r2, #9]
    2100:	4669      	mov	r1, sp
    2102:	2000      	movs	r0, #0
    2104:	4b0a      	ldr	r3, [pc, #40]	; (2130 <system_clock_init+0x90>)
    2106:	4798      	blx	r3
    2108:	2000      	movs	r0, #0
    210a:	4b0a      	ldr	r3, [pc, #40]	; (2134 <system_clock_init+0x94>)
    210c:	4798      	blx	r3
    210e:	b005      	add	sp, #20
    2110:	bd30      	pop	{r4, r5, pc}
    2112:	46c0      	nop			; (mov r8, r8)
    2114:	40000800 	.word	0x40000800
    2118:	41004000 	.word	0x41004000
    211c:	00002371 	.word	0x00002371
    2120:	00001fbd 	.word	0x00001fbd
    2124:	00001ff9 	.word	0x00001ff9
    2128:	00002139 	.word	0x00002139
    212c:	40000400 	.word	0x40000400
    2130:	0000215d 	.word	0x0000215d
    2134:	00002215 	.word	0x00002215

00002138 <system_gclk_init>:
    2138:	4a06      	ldr	r2, [pc, #24]	; (2154 <system_gclk_init+0x1c>)
    213a:	6993      	ldr	r3, [r2, #24]
    213c:	2108      	movs	r1, #8
    213e:	430b      	orrs	r3, r1
    2140:	6193      	str	r3, [r2, #24]
    2142:	2201      	movs	r2, #1
    2144:	4b04      	ldr	r3, [pc, #16]	; (2158 <system_gclk_init+0x20>)
    2146:	701a      	strb	r2, [r3, #0]
    2148:	0019      	movs	r1, r3
    214a:	780b      	ldrb	r3, [r1, #0]
    214c:	4213      	tst	r3, r2
    214e:	d1fc      	bne.n	214a <system_gclk_init+0x12>
    2150:	4770      	bx	lr
    2152:	46c0      	nop			; (mov r8, r8)
    2154:	40000400 	.word	0x40000400
    2158:	40000c00 	.word	0x40000c00

0000215c <system_gclk_gen_set_config>:
    215c:	b570      	push	{r4, r5, r6, lr}
    215e:	0006      	movs	r6, r0
    2160:	0004      	movs	r4, r0
    2162:	780d      	ldrb	r5, [r1, #0]
    2164:	022d      	lsls	r5, r5, #8
    2166:	4305      	orrs	r5, r0
    2168:	784b      	ldrb	r3, [r1, #1]
    216a:	2b00      	cmp	r3, #0
    216c:	d002      	beq.n	2174 <system_gclk_gen_set_config+0x18>
    216e:	2380      	movs	r3, #128	; 0x80
    2170:	02db      	lsls	r3, r3, #11
    2172:	431d      	orrs	r5, r3
    2174:	7a4b      	ldrb	r3, [r1, #9]
    2176:	2b00      	cmp	r3, #0
    2178:	d002      	beq.n	2180 <system_gclk_gen_set_config+0x24>
    217a:	2380      	movs	r3, #128	; 0x80
    217c:	031b      	lsls	r3, r3, #12
    217e:	431d      	orrs	r5, r3
    2180:	6848      	ldr	r0, [r1, #4]
    2182:	2801      	cmp	r0, #1
    2184:	d910      	bls.n	21a8 <system_gclk_gen_set_config+0x4c>
    2186:	1e43      	subs	r3, r0, #1
    2188:	4218      	tst	r0, r3
    218a:	d134      	bne.n	21f6 <system_gclk_gen_set_config+0x9a>
    218c:	2802      	cmp	r0, #2
    218e:	d930      	bls.n	21f2 <system_gclk_gen_set_config+0x96>
    2190:	2302      	movs	r3, #2
    2192:	2200      	movs	r2, #0
    2194:	3201      	adds	r2, #1
    2196:	005b      	lsls	r3, r3, #1
    2198:	4298      	cmp	r0, r3
    219a:	d8fb      	bhi.n	2194 <system_gclk_gen_set_config+0x38>
    219c:	0212      	lsls	r2, r2, #8
    219e:	4332      	orrs	r2, r6
    21a0:	0014      	movs	r4, r2
    21a2:	2380      	movs	r3, #128	; 0x80
    21a4:	035b      	lsls	r3, r3, #13
    21a6:	431d      	orrs	r5, r3
    21a8:	7a0b      	ldrb	r3, [r1, #8]
    21aa:	2b00      	cmp	r3, #0
    21ac:	d002      	beq.n	21b4 <system_gclk_gen_set_config+0x58>
    21ae:	2380      	movs	r3, #128	; 0x80
    21b0:	039b      	lsls	r3, r3, #14
    21b2:	431d      	orrs	r5, r3
    21b4:	4a13      	ldr	r2, [pc, #76]	; (2204 <system_gclk_gen_set_config+0xa8>)
    21b6:	7853      	ldrb	r3, [r2, #1]
    21b8:	b25b      	sxtb	r3, r3
    21ba:	2b00      	cmp	r3, #0
    21bc:	dbfb      	blt.n	21b6 <system_gclk_gen_set_config+0x5a>
    21be:	4b12      	ldr	r3, [pc, #72]	; (2208 <system_gclk_gen_set_config+0xac>)
    21c0:	4798      	blx	r3
    21c2:	4b12      	ldr	r3, [pc, #72]	; (220c <system_gclk_gen_set_config+0xb0>)
    21c4:	701e      	strb	r6, [r3, #0]
    21c6:	4a0f      	ldr	r2, [pc, #60]	; (2204 <system_gclk_gen_set_config+0xa8>)
    21c8:	7853      	ldrb	r3, [r2, #1]
    21ca:	b25b      	sxtb	r3, r3
    21cc:	2b00      	cmp	r3, #0
    21ce:	dbfb      	blt.n	21c8 <system_gclk_gen_set_config+0x6c>
    21d0:	4b0c      	ldr	r3, [pc, #48]	; (2204 <system_gclk_gen_set_config+0xa8>)
    21d2:	609c      	str	r4, [r3, #8]
    21d4:	001a      	movs	r2, r3
    21d6:	7853      	ldrb	r3, [r2, #1]
    21d8:	b25b      	sxtb	r3, r3
    21da:	2b00      	cmp	r3, #0
    21dc:	dbfb      	blt.n	21d6 <system_gclk_gen_set_config+0x7a>
    21de:	4a09      	ldr	r2, [pc, #36]	; (2204 <system_gclk_gen_set_config+0xa8>)
    21e0:	6853      	ldr	r3, [r2, #4]
    21e2:	2180      	movs	r1, #128	; 0x80
    21e4:	0249      	lsls	r1, r1, #9
    21e6:	400b      	ands	r3, r1
    21e8:	431d      	orrs	r5, r3
    21ea:	6055      	str	r5, [r2, #4]
    21ec:	4b08      	ldr	r3, [pc, #32]	; (2210 <system_gclk_gen_set_config+0xb4>)
    21ee:	4798      	blx	r3
    21f0:	bd70      	pop	{r4, r5, r6, pc}
    21f2:	2200      	movs	r2, #0
    21f4:	e7d2      	b.n	219c <system_gclk_gen_set_config+0x40>
    21f6:	0204      	lsls	r4, r0, #8
    21f8:	4334      	orrs	r4, r6
    21fa:	2380      	movs	r3, #128	; 0x80
    21fc:	029b      	lsls	r3, r3, #10
    21fe:	431d      	orrs	r5, r3
    2200:	e7d2      	b.n	21a8 <system_gclk_gen_set_config+0x4c>
    2202:	46c0      	nop			; (mov r8, r8)
    2204:	40000c00 	.word	0x40000c00
    2208:	00001ebd 	.word	0x00001ebd
    220c:	40000c08 	.word	0x40000c08
    2210:	00001efd 	.word	0x00001efd

00002214 <system_gclk_gen_enable>:
    2214:	b510      	push	{r4, lr}
    2216:	0004      	movs	r4, r0
    2218:	4a0b      	ldr	r2, [pc, #44]	; (2248 <system_gclk_gen_enable+0x34>)
    221a:	7853      	ldrb	r3, [r2, #1]
    221c:	b25b      	sxtb	r3, r3
    221e:	2b00      	cmp	r3, #0
    2220:	dbfb      	blt.n	221a <system_gclk_gen_enable+0x6>
    2222:	4b0a      	ldr	r3, [pc, #40]	; (224c <system_gclk_gen_enable+0x38>)
    2224:	4798      	blx	r3
    2226:	4b0a      	ldr	r3, [pc, #40]	; (2250 <system_gclk_gen_enable+0x3c>)
    2228:	701c      	strb	r4, [r3, #0]
    222a:	4a07      	ldr	r2, [pc, #28]	; (2248 <system_gclk_gen_enable+0x34>)
    222c:	7853      	ldrb	r3, [r2, #1]
    222e:	b25b      	sxtb	r3, r3
    2230:	2b00      	cmp	r3, #0
    2232:	dbfb      	blt.n	222c <system_gclk_gen_enable+0x18>
    2234:	4a04      	ldr	r2, [pc, #16]	; (2248 <system_gclk_gen_enable+0x34>)
    2236:	6851      	ldr	r1, [r2, #4]
    2238:	2380      	movs	r3, #128	; 0x80
    223a:	025b      	lsls	r3, r3, #9
    223c:	430b      	orrs	r3, r1
    223e:	6053      	str	r3, [r2, #4]
    2240:	4b04      	ldr	r3, [pc, #16]	; (2254 <system_gclk_gen_enable+0x40>)
    2242:	4798      	blx	r3
    2244:	bd10      	pop	{r4, pc}
    2246:	46c0      	nop			; (mov r8, r8)
    2248:	40000c00 	.word	0x40000c00
    224c:	00001ebd 	.word	0x00001ebd
    2250:	40000c04 	.word	0x40000c04
    2254:	00001efd 	.word	0x00001efd

00002258 <system_gclk_gen_get_hz>:
    2258:	b570      	push	{r4, r5, r6, lr}
    225a:	0004      	movs	r4, r0
    225c:	4a1a      	ldr	r2, [pc, #104]	; (22c8 <system_gclk_gen_get_hz+0x70>)
    225e:	7853      	ldrb	r3, [r2, #1]
    2260:	b25b      	sxtb	r3, r3
    2262:	2b00      	cmp	r3, #0
    2264:	dbfb      	blt.n	225e <system_gclk_gen_get_hz+0x6>
    2266:	4b19      	ldr	r3, [pc, #100]	; (22cc <system_gclk_gen_get_hz+0x74>)
    2268:	4798      	blx	r3
    226a:	4b19      	ldr	r3, [pc, #100]	; (22d0 <system_gclk_gen_get_hz+0x78>)
    226c:	701c      	strb	r4, [r3, #0]
    226e:	4a16      	ldr	r2, [pc, #88]	; (22c8 <system_gclk_gen_get_hz+0x70>)
    2270:	7853      	ldrb	r3, [r2, #1]
    2272:	b25b      	sxtb	r3, r3
    2274:	2b00      	cmp	r3, #0
    2276:	dbfb      	blt.n	2270 <system_gclk_gen_get_hz+0x18>
    2278:	4e13      	ldr	r6, [pc, #76]	; (22c8 <system_gclk_gen_get_hz+0x70>)
    227a:	6870      	ldr	r0, [r6, #4]
    227c:	04c0      	lsls	r0, r0, #19
    227e:	0ec0      	lsrs	r0, r0, #27
    2280:	4b14      	ldr	r3, [pc, #80]	; (22d4 <system_gclk_gen_get_hz+0x7c>)
    2282:	4798      	blx	r3
    2284:	0005      	movs	r5, r0
    2286:	4b12      	ldr	r3, [pc, #72]	; (22d0 <system_gclk_gen_get_hz+0x78>)
    2288:	701c      	strb	r4, [r3, #0]
    228a:	6876      	ldr	r6, [r6, #4]
    228c:	02f6      	lsls	r6, r6, #11
    228e:	0ff6      	lsrs	r6, r6, #31
    2290:	4b11      	ldr	r3, [pc, #68]	; (22d8 <system_gclk_gen_get_hz+0x80>)
    2292:	701c      	strb	r4, [r3, #0]
    2294:	4a0c      	ldr	r2, [pc, #48]	; (22c8 <system_gclk_gen_get_hz+0x70>)
    2296:	7853      	ldrb	r3, [r2, #1]
    2298:	b25b      	sxtb	r3, r3
    229a:	2b00      	cmp	r3, #0
    229c:	dbfb      	blt.n	2296 <system_gclk_gen_get_hz+0x3e>
    229e:	4b0a      	ldr	r3, [pc, #40]	; (22c8 <system_gclk_gen_get_hz+0x70>)
    22a0:	689c      	ldr	r4, [r3, #8]
    22a2:	0224      	lsls	r4, r4, #8
    22a4:	0c24      	lsrs	r4, r4, #16
    22a6:	4b0d      	ldr	r3, [pc, #52]	; (22dc <system_gclk_gen_get_hz+0x84>)
    22a8:	4798      	blx	r3
    22aa:	2e00      	cmp	r6, #0
    22ac:	d107      	bne.n	22be <system_gclk_gen_get_hz+0x66>
    22ae:	2c01      	cmp	r4, #1
    22b0:	d907      	bls.n	22c2 <system_gclk_gen_get_hz+0x6a>
    22b2:	0021      	movs	r1, r4
    22b4:	0028      	movs	r0, r5
    22b6:	4b0a      	ldr	r3, [pc, #40]	; (22e0 <system_gclk_gen_get_hz+0x88>)
    22b8:	4798      	blx	r3
    22ba:	0005      	movs	r5, r0
    22bc:	e001      	b.n	22c2 <system_gclk_gen_get_hz+0x6a>
    22be:	3401      	adds	r4, #1
    22c0:	40e5      	lsrs	r5, r4
    22c2:	0028      	movs	r0, r5
    22c4:	bd70      	pop	{r4, r5, r6, pc}
    22c6:	46c0      	nop			; (mov r8, r8)
    22c8:	40000c00 	.word	0x40000c00
    22cc:	00001ebd 	.word	0x00001ebd
    22d0:	40000c04 	.word	0x40000c04
    22d4:	00001f2d 	.word	0x00001f2d
    22d8:	40000c08 	.word	0x40000c08
    22dc:	00001efd 	.word	0x00001efd
    22e0:	00002715 	.word	0x00002715

000022e4 <system_gclk_chan_enable>:
    22e4:	b510      	push	{r4, lr}
    22e6:	0004      	movs	r4, r0
    22e8:	4b06      	ldr	r3, [pc, #24]	; (2304 <system_gclk_chan_enable+0x20>)
    22ea:	4798      	blx	r3
    22ec:	4b06      	ldr	r3, [pc, #24]	; (2308 <system_gclk_chan_enable+0x24>)
    22ee:	701c      	strb	r4, [r3, #0]
    22f0:	4a06      	ldr	r2, [pc, #24]	; (230c <system_gclk_chan_enable+0x28>)
    22f2:	8853      	ldrh	r3, [r2, #2]
    22f4:	2180      	movs	r1, #128	; 0x80
    22f6:	01c9      	lsls	r1, r1, #7
    22f8:	430b      	orrs	r3, r1
    22fa:	8053      	strh	r3, [r2, #2]
    22fc:	4b04      	ldr	r3, [pc, #16]	; (2310 <system_gclk_chan_enable+0x2c>)
    22fe:	4798      	blx	r3
    2300:	bd10      	pop	{r4, pc}
    2302:	46c0      	nop			; (mov r8, r8)
    2304:	00001ebd 	.word	0x00001ebd
    2308:	40000c02 	.word	0x40000c02
    230c:	40000c00 	.word	0x40000c00
    2310:	00001efd 	.word	0x00001efd

00002314 <system_gclk_chan_disable>:
    2314:	b510      	push	{r4, lr}
    2316:	0004      	movs	r4, r0
    2318:	4b0f      	ldr	r3, [pc, #60]	; (2358 <system_gclk_chan_disable+0x44>)
    231a:	4798      	blx	r3
    231c:	4b0f      	ldr	r3, [pc, #60]	; (235c <system_gclk_chan_disable+0x48>)
    231e:	701c      	strb	r4, [r3, #0]
    2320:	4a0f      	ldr	r2, [pc, #60]	; (2360 <system_gclk_chan_disable+0x4c>)
    2322:	8853      	ldrh	r3, [r2, #2]
    2324:	051b      	lsls	r3, r3, #20
    2326:	0f18      	lsrs	r0, r3, #28
    2328:	8853      	ldrh	r3, [r2, #2]
    232a:	490e      	ldr	r1, [pc, #56]	; (2364 <system_gclk_chan_disable+0x50>)
    232c:	400b      	ands	r3, r1
    232e:	8053      	strh	r3, [r2, #2]
    2330:	8853      	ldrh	r3, [r2, #2]
    2332:	490d      	ldr	r1, [pc, #52]	; (2368 <system_gclk_chan_disable+0x54>)
    2334:	400b      	ands	r3, r1
    2336:	8053      	strh	r3, [r2, #2]
    2338:	0011      	movs	r1, r2
    233a:	2280      	movs	r2, #128	; 0x80
    233c:	01d2      	lsls	r2, r2, #7
    233e:	884b      	ldrh	r3, [r1, #2]
    2340:	4213      	tst	r3, r2
    2342:	d1fc      	bne.n	233e <system_gclk_chan_disable+0x2a>
    2344:	4906      	ldr	r1, [pc, #24]	; (2360 <system_gclk_chan_disable+0x4c>)
    2346:	884a      	ldrh	r2, [r1, #2]
    2348:	0203      	lsls	r3, r0, #8
    234a:	4806      	ldr	r0, [pc, #24]	; (2364 <system_gclk_chan_disable+0x50>)
    234c:	4002      	ands	r2, r0
    234e:	4313      	orrs	r3, r2
    2350:	804b      	strh	r3, [r1, #2]
    2352:	4b06      	ldr	r3, [pc, #24]	; (236c <system_gclk_chan_disable+0x58>)
    2354:	4798      	blx	r3
    2356:	bd10      	pop	{r4, pc}
    2358:	00001ebd 	.word	0x00001ebd
    235c:	40000c02 	.word	0x40000c02
    2360:	40000c00 	.word	0x40000c00
    2364:	fffff0ff 	.word	0xfffff0ff
    2368:	ffffbfff 	.word	0xffffbfff
    236c:	00001efd 	.word	0x00001efd

00002370 <system_gclk_chan_set_config>:
    2370:	b510      	push	{r4, lr}
    2372:	780c      	ldrb	r4, [r1, #0]
    2374:	0224      	lsls	r4, r4, #8
    2376:	4304      	orrs	r4, r0
    2378:	4b02      	ldr	r3, [pc, #8]	; (2384 <system_gclk_chan_set_config+0x14>)
    237a:	4798      	blx	r3
    237c:	b2a4      	uxth	r4, r4
    237e:	4b02      	ldr	r3, [pc, #8]	; (2388 <system_gclk_chan_set_config+0x18>)
    2380:	805c      	strh	r4, [r3, #2]
    2382:	bd10      	pop	{r4, pc}
    2384:	00002315 	.word	0x00002315
    2388:	40000c00 	.word	0x40000c00

0000238c <system_gclk_chan_get_hz>:
    238c:	b510      	push	{r4, lr}
    238e:	0004      	movs	r4, r0
    2390:	4b06      	ldr	r3, [pc, #24]	; (23ac <system_gclk_chan_get_hz+0x20>)
    2392:	4798      	blx	r3
    2394:	4b06      	ldr	r3, [pc, #24]	; (23b0 <system_gclk_chan_get_hz+0x24>)
    2396:	701c      	strb	r4, [r3, #0]
    2398:	4b06      	ldr	r3, [pc, #24]	; (23b4 <system_gclk_chan_get_hz+0x28>)
    239a:	885c      	ldrh	r4, [r3, #2]
    239c:	0524      	lsls	r4, r4, #20
    239e:	0f24      	lsrs	r4, r4, #28
    23a0:	4b05      	ldr	r3, [pc, #20]	; (23b8 <system_gclk_chan_get_hz+0x2c>)
    23a2:	4798      	blx	r3
    23a4:	0020      	movs	r0, r4
    23a6:	4b05      	ldr	r3, [pc, #20]	; (23bc <system_gclk_chan_get_hz+0x30>)
    23a8:	4798      	blx	r3
    23aa:	bd10      	pop	{r4, pc}
    23ac:	00001ebd 	.word	0x00001ebd
    23b0:	40000c02 	.word	0x40000c02
    23b4:	40000c00 	.word	0x40000c00
    23b8:	00001efd 	.word	0x00001efd
    23bc:	00002259 	.word	0x00002259

000023c0 <_system_pinmux_config>:
    23c0:	b530      	push	{r4, r5, lr}
    23c2:	78d3      	ldrb	r3, [r2, #3]
    23c4:	2b00      	cmp	r3, #0
    23c6:	d135      	bne.n	2434 <_system_pinmux_config+0x74>
    23c8:	7813      	ldrb	r3, [r2, #0]
    23ca:	2b80      	cmp	r3, #128	; 0x80
    23cc:	d029      	beq.n	2422 <_system_pinmux_config+0x62>
    23ce:	061b      	lsls	r3, r3, #24
    23d0:	2480      	movs	r4, #128	; 0x80
    23d2:	0264      	lsls	r4, r4, #9
    23d4:	4323      	orrs	r3, r4
    23d6:	7854      	ldrb	r4, [r2, #1]
    23d8:	2502      	movs	r5, #2
    23da:	43ac      	bics	r4, r5
    23dc:	d106      	bne.n	23ec <_system_pinmux_config+0x2c>
    23de:	7894      	ldrb	r4, [r2, #2]
    23e0:	2c00      	cmp	r4, #0
    23e2:	d120      	bne.n	2426 <_system_pinmux_config+0x66>
    23e4:	2480      	movs	r4, #128	; 0x80
    23e6:	02a4      	lsls	r4, r4, #10
    23e8:	4323      	orrs	r3, r4
    23ea:	6041      	str	r1, [r0, #4]
    23ec:	7854      	ldrb	r4, [r2, #1]
    23ee:	3c01      	subs	r4, #1
    23f0:	2c01      	cmp	r4, #1
    23f2:	d91c      	bls.n	242e <_system_pinmux_config+0x6e>
    23f4:	040d      	lsls	r5, r1, #16
    23f6:	0c2d      	lsrs	r5, r5, #16
    23f8:	24a0      	movs	r4, #160	; 0xa0
    23fa:	05e4      	lsls	r4, r4, #23
    23fc:	432c      	orrs	r4, r5
    23fe:	431c      	orrs	r4, r3
    2400:	6284      	str	r4, [r0, #40]	; 0x28
    2402:	0c0d      	lsrs	r5, r1, #16
    2404:	24d0      	movs	r4, #208	; 0xd0
    2406:	0624      	lsls	r4, r4, #24
    2408:	432c      	orrs	r4, r5
    240a:	431c      	orrs	r4, r3
    240c:	6284      	str	r4, [r0, #40]	; 0x28
    240e:	78d4      	ldrb	r4, [r2, #3]
    2410:	2c00      	cmp	r4, #0
    2412:	d122      	bne.n	245a <_system_pinmux_config+0x9a>
    2414:	035b      	lsls	r3, r3, #13
    2416:	d51c      	bpl.n	2452 <_system_pinmux_config+0x92>
    2418:	7893      	ldrb	r3, [r2, #2]
    241a:	2b01      	cmp	r3, #1
    241c:	d01e      	beq.n	245c <_system_pinmux_config+0x9c>
    241e:	6141      	str	r1, [r0, #20]
    2420:	e017      	b.n	2452 <_system_pinmux_config+0x92>
    2422:	2300      	movs	r3, #0
    2424:	e7d7      	b.n	23d6 <_system_pinmux_config+0x16>
    2426:	24c0      	movs	r4, #192	; 0xc0
    2428:	02e4      	lsls	r4, r4, #11
    242a:	4323      	orrs	r3, r4
    242c:	e7dd      	b.n	23ea <_system_pinmux_config+0x2a>
    242e:	4c0d      	ldr	r4, [pc, #52]	; (2464 <_system_pinmux_config+0xa4>)
    2430:	4023      	ands	r3, r4
    2432:	e7df      	b.n	23f4 <_system_pinmux_config+0x34>
    2434:	6041      	str	r1, [r0, #4]
    2436:	040c      	lsls	r4, r1, #16
    2438:	0c24      	lsrs	r4, r4, #16
    243a:	23a0      	movs	r3, #160	; 0xa0
    243c:	05db      	lsls	r3, r3, #23
    243e:	4323      	orrs	r3, r4
    2440:	6283      	str	r3, [r0, #40]	; 0x28
    2442:	0c0c      	lsrs	r4, r1, #16
    2444:	23d0      	movs	r3, #208	; 0xd0
    2446:	061b      	lsls	r3, r3, #24
    2448:	4323      	orrs	r3, r4
    244a:	6283      	str	r3, [r0, #40]	; 0x28
    244c:	78d3      	ldrb	r3, [r2, #3]
    244e:	2b00      	cmp	r3, #0
    2450:	d103      	bne.n	245a <_system_pinmux_config+0x9a>
    2452:	7853      	ldrb	r3, [r2, #1]
    2454:	3b01      	subs	r3, #1
    2456:	2b01      	cmp	r3, #1
    2458:	d902      	bls.n	2460 <_system_pinmux_config+0xa0>
    245a:	bd30      	pop	{r4, r5, pc}
    245c:	6181      	str	r1, [r0, #24]
    245e:	e7f8      	b.n	2452 <_system_pinmux_config+0x92>
    2460:	6081      	str	r1, [r0, #8]
    2462:	e7fa      	b.n	245a <_system_pinmux_config+0x9a>
    2464:	fffbffff 	.word	0xfffbffff

00002468 <system_pinmux_pin_set_config>:
    2468:	b510      	push	{r4, lr}
    246a:	000a      	movs	r2, r1
    246c:	09c1      	lsrs	r1, r0, #7
    246e:	2300      	movs	r3, #0
    2470:	2900      	cmp	r1, #0
    2472:	d104      	bne.n	247e <system_pinmux_pin_set_config+0x16>
    2474:	0943      	lsrs	r3, r0, #5
    2476:	01db      	lsls	r3, r3, #7
    2478:	4905      	ldr	r1, [pc, #20]	; (2490 <system_pinmux_pin_set_config+0x28>)
    247a:	468c      	mov	ip, r1
    247c:	4463      	add	r3, ip
    247e:	241f      	movs	r4, #31
    2480:	4020      	ands	r0, r4
    2482:	2101      	movs	r1, #1
    2484:	4081      	lsls	r1, r0
    2486:	0018      	movs	r0, r3
    2488:	4b02      	ldr	r3, [pc, #8]	; (2494 <system_pinmux_pin_set_config+0x2c>)
    248a:	4798      	blx	r3
    248c:	bd10      	pop	{r4, pc}
    248e:	46c0      	nop			; (mov r8, r8)
    2490:	41004400 	.word	0x41004400
    2494:	000023c1 	.word	0x000023c1

00002498 <_system_dummy_init>:
    2498:	4770      	bx	lr
	...

0000249c <system_init>:
    249c:	b510      	push	{r4, lr}
    249e:	4b05      	ldr	r3, [pc, #20]	; (24b4 <system_init+0x18>)
    24a0:	4798      	blx	r3
    24a2:	4b05      	ldr	r3, [pc, #20]	; (24b8 <system_init+0x1c>)
    24a4:	4798      	blx	r3
    24a6:	4b05      	ldr	r3, [pc, #20]	; (24bc <system_init+0x20>)
    24a8:	4798      	blx	r3
    24aa:	4b05      	ldr	r3, [pc, #20]	; (24c0 <system_init+0x24>)
    24ac:	4798      	blx	r3
    24ae:	4b05      	ldr	r3, [pc, #20]	; (24c4 <system_init+0x28>)
    24b0:	4798      	blx	r3
    24b2:	bd10      	pop	{r4, pc}
    24b4:	000020a1 	.word	0x000020a1
    24b8:	00001eb9 	.word	0x00001eb9
    24bc:	00002499 	.word	0x00002499
    24c0:	00002499 	.word	0x00002499
    24c4:	00002499 	.word	0x00002499

000024c8 <Dummy_Handler>:
    24c8:	e7fe      	b.n	24c8 <Dummy_Handler>
	...

000024cc <Reset_Handler>:
    24cc:	b5f8      	push	{r3, r4, r5, r6, r7, lr}
    24ce:	4a2a      	ldr	r2, [pc, #168]	; (2578 <Reset_Handler+0xac>)
    24d0:	4b2a      	ldr	r3, [pc, #168]	; (257c <Reset_Handler+0xb0>)
    24d2:	429a      	cmp	r2, r3
    24d4:	d011      	beq.n	24fa <Reset_Handler+0x2e>
    24d6:	001a      	movs	r2, r3
    24d8:	4b29      	ldr	r3, [pc, #164]	; (2580 <Reset_Handler+0xb4>)
    24da:	429a      	cmp	r2, r3
    24dc:	d20d      	bcs.n	24fa <Reset_Handler+0x2e>
    24de:	4a29      	ldr	r2, [pc, #164]	; (2584 <Reset_Handler+0xb8>)
    24e0:	3303      	adds	r3, #3
    24e2:	1a9b      	subs	r3, r3, r2
    24e4:	089b      	lsrs	r3, r3, #2
    24e6:	3301      	adds	r3, #1
    24e8:	009b      	lsls	r3, r3, #2
    24ea:	2200      	movs	r2, #0
    24ec:	4823      	ldr	r0, [pc, #140]	; (257c <Reset_Handler+0xb0>)
    24ee:	4922      	ldr	r1, [pc, #136]	; (2578 <Reset_Handler+0xac>)
    24f0:	588c      	ldr	r4, [r1, r2]
    24f2:	5084      	str	r4, [r0, r2]
    24f4:	3204      	adds	r2, #4
    24f6:	429a      	cmp	r2, r3
    24f8:	d1fa      	bne.n	24f0 <Reset_Handler+0x24>
    24fa:	4a23      	ldr	r2, [pc, #140]	; (2588 <Reset_Handler+0xbc>)
    24fc:	4b23      	ldr	r3, [pc, #140]	; (258c <Reset_Handler+0xc0>)
    24fe:	429a      	cmp	r2, r3
    2500:	d20a      	bcs.n	2518 <Reset_Handler+0x4c>
    2502:	43d3      	mvns	r3, r2
    2504:	4921      	ldr	r1, [pc, #132]	; (258c <Reset_Handler+0xc0>)
    2506:	185b      	adds	r3, r3, r1
    2508:	2103      	movs	r1, #3
    250a:	438b      	bics	r3, r1
    250c:	3304      	adds	r3, #4
    250e:	189b      	adds	r3, r3, r2
    2510:	2100      	movs	r1, #0
    2512:	c202      	stmia	r2!, {r1}
    2514:	4293      	cmp	r3, r2
    2516:	d1fc      	bne.n	2512 <Reset_Handler+0x46>
    2518:	4a1d      	ldr	r2, [pc, #116]	; (2590 <Reset_Handler+0xc4>)
    251a:	21ff      	movs	r1, #255	; 0xff
    251c:	4b1d      	ldr	r3, [pc, #116]	; (2594 <Reset_Handler+0xc8>)
    251e:	438b      	bics	r3, r1
    2520:	6093      	str	r3, [r2, #8]
    2522:	39fd      	subs	r1, #253	; 0xfd
    2524:	2390      	movs	r3, #144	; 0x90
    2526:	005b      	lsls	r3, r3, #1
    2528:	4a1b      	ldr	r2, [pc, #108]	; (2598 <Reset_Handler+0xcc>)
    252a:	50d1      	str	r1, [r2, r3]
    252c:	4a1b      	ldr	r2, [pc, #108]	; (259c <Reset_Handler+0xd0>)
    252e:	78d3      	ldrb	r3, [r2, #3]
    2530:	2503      	movs	r5, #3
    2532:	43ab      	bics	r3, r5
    2534:	2402      	movs	r4, #2
    2536:	4323      	orrs	r3, r4
    2538:	70d3      	strb	r3, [r2, #3]
    253a:	78d3      	ldrb	r3, [r2, #3]
    253c:	270c      	movs	r7, #12
    253e:	43bb      	bics	r3, r7
    2540:	2608      	movs	r6, #8
    2542:	4333      	orrs	r3, r6
    2544:	70d3      	strb	r3, [r2, #3]
    2546:	4b16      	ldr	r3, [pc, #88]	; (25a0 <Reset_Handler+0xd4>)
    2548:	7b98      	ldrb	r0, [r3, #14]
    254a:	2230      	movs	r2, #48	; 0x30
    254c:	4390      	bics	r0, r2
    254e:	2220      	movs	r2, #32
    2550:	4310      	orrs	r0, r2
    2552:	7398      	strb	r0, [r3, #14]
    2554:	7b99      	ldrb	r1, [r3, #14]
    2556:	43b9      	bics	r1, r7
    2558:	4331      	orrs	r1, r6
    255a:	7399      	strb	r1, [r3, #14]
    255c:	7b9a      	ldrb	r2, [r3, #14]
    255e:	43aa      	bics	r2, r5
    2560:	4322      	orrs	r2, r4
    2562:	739a      	strb	r2, [r3, #14]
    2564:	4a0f      	ldr	r2, [pc, #60]	; (25a4 <Reset_Handler+0xd8>)
    2566:	6853      	ldr	r3, [r2, #4]
    2568:	2180      	movs	r1, #128	; 0x80
    256a:	430b      	orrs	r3, r1
    256c:	6053      	str	r3, [r2, #4]
    256e:	4b0e      	ldr	r3, [pc, #56]	; (25a8 <Reset_Handler+0xdc>)
    2570:	4798      	blx	r3
    2572:	4b0e      	ldr	r3, [pc, #56]	; (25ac <Reset_Handler+0xe0>)
    2574:	4798      	blx	r3
    2576:	e7fe      	b.n	2576 <Reset_Handler+0xaa>
    2578:	000042a0 	.word	0x000042a0
    257c:	20000000 	.word	0x20000000
    2580:	2000000c 	.word	0x2000000c
    2584:	20000004 	.word	0x20000004
    2588:	2000000c 	.word	0x2000000c
    258c:	20003c7c 	.word	0x20003c7c
    2590:	e000ed00 	.word	0xe000ed00
    2594:	00000000 	.word	0x00000000
    2598:	41007000 	.word	0x41007000
    259c:	41005000 	.word	0x41005000
    25a0:	41004800 	.word	0x41004800
    25a4:	41004000 	.word	0x41004000
    25a8:	000040f5 	.word	0x000040f5
    25ac:	000026a9 	.word	0x000026a9

000025b0 <configure_i2c_master>:
 *  Author: daniel
 */ 
 #include <I2C.h>

 void configure_i2c_master(void)
 {
    25b0:	b530      	push	{r4, r5, lr}
    25b2:	b08f      	sub	sp, #60	; 0x3c
static inline void i2c_master_get_config_defaults(
		struct i2c_master_config *const config)
{
	/*Sanity check argument */
	Assert(config);
	config->baud_rate        = I2C_MASTER_BAUD_RATE_100KHZ;
    25b4:	aa01      	add	r2, sp, #4
    25b6:	2364      	movs	r3, #100	; 0x64
    25b8:	9301      	str	r3, [sp, #4]
#ifdef FEATURE_I2C_FAST_MODE_PLUS_AND_HIGH_SPEED
	config->baud_rate_high_speed = I2C_MASTER_BAUD_RATE_3400KHZ;
    25ba:	4b20      	ldr	r3, [pc, #128]	; (263c <configure_i2c_master+0x8c>)
    25bc:	6053      	str	r3, [r2, #4]
	config->transfer_speed       = I2C_MASTER_SPEED_STANDARD_AND_FAST;
    25be:	2300      	movs	r3, #0
    25c0:	6093      	str	r3, [r2, #8]
#endif
	config->generator_source = GCLK_GENERATOR_0;
    25c2:	7313      	strb	r3, [r2, #12]
	config->run_in_standby   = false;
    25c4:	7613      	strb	r3, [r2, #24]
	config->start_hold_time  = I2C_MASTER_START_HOLD_TIME_300NS_600NS;
    25c6:	2180      	movs	r1, #128	; 0x80
    25c8:	0389      	lsls	r1, r1, #14
    25ca:	6111      	str	r1, [r2, #16]
	config->buffer_timeout   = 65535;
	config->unknown_bus_state_timeout = 65535;
    25cc:	2101      	movs	r1, #1
    25ce:	4249      	negs	r1, r1
    25d0:	8291      	strh	r1, [r2, #20]
	config->pinmux_pad0      = PINMUX_DEFAULT;
    25d2:	61d3      	str	r3, [r2, #28]
	config->pinmux_pad1      = PINMUX_DEFAULT;
    25d4:	6213      	str	r3, [r2, #32]
	config->scl_low_timeout  = false;
    25d6:	3125      	adds	r1, #37	; 0x25
    25d8:	5453      	strb	r3, [r2, r1]
	config->inactive_timeout = I2C_MASTER_INACTIVE_TIMEOUT_DISABLED;
    25da:	6293      	str	r3, [r2, #40]	; 0x28
#ifdef FEATURE_I2C_SCL_STRETCH_MODE
	config->scl_stretch_only_after_ack_bit = false;
    25dc:	3108      	adds	r1, #8
    25de:	5453      	strb	r3, [r2, r1]
#endif
#ifdef FEATURE_I2C_SCL_EXTEND_TIMEOUT
	config->slave_scl_low_extend_timeout   = false;
    25e0:	3101      	adds	r1, #1
    25e2:	5453      	strb	r3, [r2, r1]
	config->master_scl_low_extend_timeout  = false;
    25e4:	3101      	adds	r1, #1
    25e6:	5453      	strb	r3, [r2, r1]
#endif
	/* The typical value is 215ns */
	config->sda_scl_rise_time_ns = 215;
    25e8:	33d7      	adds	r3, #215	; 0xd7
    25ea:	8613      	strh	r3, [r2, #48]	; 0x30
	 /* Initialize config structure and software module. */
	 struct i2c_master_config config_i2c_master;
	 i2c_master_get_config_defaults(&config_i2c_master);
	 /* Change buffer timeout to something longer. */
	 config_i2c_master.buffer_timeout = 10000;
    25ec:	4b14      	ldr	r3, [pc, #80]	; (2640 <configure_i2c_master+0x90>)
    25ee:	82d3      	strh	r3, [r2, #22]
	 /* Initialize and enable device with config. */
	 i2c_master_init(&i2c_master_instance, SERCOM2, &config_i2c_master);
    25f0:	4c14      	ldr	r4, [pc, #80]	; (2644 <configure_i2c_master+0x94>)
    25f2:	4915      	ldr	r1, [pc, #84]	; (2648 <configure_i2c_master+0x98>)
    25f4:	0020      	movs	r0, r4
    25f6:	4b15      	ldr	r3, [pc, #84]	; (264c <configure_i2c_master+0x9c>)
    25f8:	4798      	blx	r3
{
	/* Sanity check of arguments */
	Assert(module);
	Assert(module->hw);

	SercomI2cm *const i2c_module = &(module->hw->I2CM);
    25fa:	6824      	ldr	r4, [r4, #0]
	return (i2c_hw->SYNCBUSY.reg & SERCOM_I2CM_SYNCBUSY_MASK);
    25fc:	2207      	movs	r2, #7
    25fe:	69e3      	ldr	r3, [r4, #28]
	while (i2c_master_is_syncing(module)) {
    2600:	421a      	tst	r2, r3
    2602:	d1fc      	bne.n	25fe <configure_i2c_master+0x4e>

	/* Wait for module to sync */
	_i2c_master_wait_for_sync(module);

	/* Enable module */
	i2c_module->CTRLA.reg |= SERCOM_I2CM_CTRLA_ENABLE;
    2604:	6823      	ldr	r3, [r4, #0]
    2606:	2202      	movs	r2, #2
    2608:	4313      	orrs	r3, r2
    260a:	6023      	str	r3, [r4, #0]

#if I2C_MASTER_CALLBACK_MODE == true
	/* Enable module interrupts */
	system_interrupt_enable(_sercom_get_interrupt_vector(module->hw));
    260c:	4d0d      	ldr	r5, [pc, #52]	; (2644 <configure_i2c_master+0x94>)
    260e:	6828      	ldr	r0, [r5, #0]
    2610:	4b0f      	ldr	r3, [pc, #60]	; (2650 <configure_i2c_master+0xa0>)
    2612:	4798      	blx	r3
 * \param[in] vector Interrupt vector to enable
 */
static inline void system_interrupt_enable(
		const enum system_interrupt_vector vector)
{
	NVIC->ISER[0] = (uint32_t)(1 << ((uint32_t)vector & 0x0000001f));
    2614:	231f      	movs	r3, #31
    2616:	4018      	ands	r0, r3
    2618:	3b1e      	subs	r3, #30
    261a:	4083      	lsls	r3, r0
    261c:	4a0d      	ldr	r2, [pc, #52]	; (2654 <configure_i2c_master+0xa4>)
    261e:	6013      	str	r3, [r2, #0]
#endif
	/* Start timeout if bus state is unknown */
	while (!(i2c_module->STATUS.reg & SERCOM_I2CM_STATUS_BUSSTATE(1))) {
		timeout_counter++;
		if(timeout_counter >= (module->unknown_bus_state_timeout)) {
    2620:	88e8      	ldrh	r0, [r5, #6]
	uint32_t timeout_counter = 0;
    2622:	2300      	movs	r3, #0
	while (!(i2c_module->STATUS.reg & SERCOM_I2CM_STATUS_BUSSTATE(1))) {
    2624:	2110      	movs	r1, #16
    2626:	8b62      	ldrh	r2, [r4, #26]
    2628:	420a      	tst	r2, r1
    262a:	d104      	bne.n	2636 <configure_i2c_master+0x86>
		timeout_counter++;
    262c:	3301      	adds	r3, #1
		if(timeout_counter >= (module->unknown_bus_state_timeout)) {
    262e:	4283      	cmp	r3, r0
    2630:	d3f9      	bcc.n	2626 <configure_i2c_master+0x76>
			/* Timeout, force bus state to idle */
			i2c_module->STATUS.reg = SERCOM_I2CM_STATUS_BUSSTATE(1);
    2632:	2310      	movs	r3, #16
    2634:	8363      	strh	r3, [r4, #26]
	 i2c_master_enable(&i2c_master_instance);
 }
    2636:	b00f      	add	sp, #60	; 0x3c
    2638:	bd30      	pop	{r4, r5, pc}
    263a:	46c0      	nop			; (mov r8, r8)
    263c:	00000d48 	.word	0x00000d48
    2640:	00002710 	.word	0x00002710
    2644:	20003c54 	.word	0x20003c54
    2648:	42001000 	.word	0x42001000
    264c:	00000115 	.word	0x00000115
    2650:	00001e29 	.word	0x00001e29
    2654:	e000e100 	.word	0xe000e100

00002658 <mrBlinky>:
	return arch_ioport_port_to_base(port)->IN.reg & mask;
}

inline static void arch_ioport_toggle_pin_level(ioport_pin_t pin)
{
	arch_ioport_pin_to_base(pin)->OUTTGL.reg = arch_ioport_pin_to_mask(pin);
    2658:	2280      	movs	r2, #128	; 0x80
    265a:	0292      	lsls	r2, r2, #10
    265c:	4b01      	ldr	r3, [pc, #4]	; (2664 <mrBlinky+0xc>)
    265e:	61da      	str	r2, [r3, #28]
};

 void mrBlinky(xTimerHandle pxtimer)
 {
	ioport_toggle_pin_level(17);		
 }
    2660:	4770      	bx	lr
    2662:	46c0      	nop			; (mov r8, r8)
    2664:	41004400 	.word	0x41004400

00002668 <initIO>:

void initIO()
{
    2668:	b510      	push	{r4, lr}
	for (uint32_t i = 0; i < 32; i++) {
    266a:	2300      	movs	r3, #0
		if (mask & (1 << i)) {
    266c:	2101      	movs	r1, #1
    266e:	2480      	movs	r4, #128	; 0x80
    2670:	02a4      	lsls	r4, r4, #10
	for (uint32_t i = 0; i < 32; i++) {
    2672:	3301      	adds	r3, #1
    2674:	2b20      	cmp	r3, #32
    2676:	d009      	beq.n	268c <initIO+0x24>
		if (mask & (1 << i)) {
    2678:	000a      	movs	r2, r1
    267a:	409a      	lsls	r2, r3
    267c:	4222      	tst	r2, r4
    267e:	d0f8      	beq.n	2672 <initIO+0xa>
			base->PINCFG[i].reg &= ~PORT_PINCFG_PMUXEN;
    2680:	4a07      	ldr	r2, [pc, #28]	; (26a0 <initIO+0x38>)
    2682:	1898      	adds	r0, r3, r2
    2684:	7802      	ldrb	r2, [r0, #0]
    2686:	438a      	bics	r2, r1
    2688:	7002      	strb	r2, [r0, #0]
    268a:	e7f2      	b.n	2672 <initIO+0xa>
		base->DIRSET.reg = arch_ioport_pin_to_mask(pin);
    268c:	4b05      	ldr	r3, [pc, #20]	; (26a4 <initIO+0x3c>)
    268e:	2280      	movs	r2, #128	; 0x80
    2690:	0292      	lsls	r2, r2, #10
    2692:	609a      	str	r2, [r3, #8]
	base->PINCFG[pin].reg |= PORT_PINCFG_INEN;
    2694:	2151      	movs	r1, #81	; 0x51
    2696:	5c5a      	ldrb	r2, [r3, r1]
    2698:	2002      	movs	r0, #2
    269a:	4302      	orrs	r2, r0
    269c:	545a      	strb	r2, [r3, r1]
	ioport_enable_pin(17);
	ioport_set_pin_dir(17, IOPORT_DIR_OUTPUT);

}
    269e:	bd10      	pop	{r4, pc}
    26a0:	41004440 	.word	0x41004440
    26a4:	41004400 	.word	0x41004400

000026a8 <main>:

int main (void)
{
    26a8:	b510      	push	{r4, lr}
    26aa:	b082      	sub	sp, #8
	xTimerHandle Timer_id;

	system_init();
    26ac:	4b0f      	ldr	r3, [pc, #60]	; (26ec <main+0x44>)
    26ae:	4798      	blx	r3
	system_clock_init();
    26b0:	4b0f      	ldr	r3, [pc, #60]	; (26f0 <main+0x48>)
    26b2:	4798      	blx	r3
	arch_ioport_init();
	initIO();
    26b4:	4b0f      	ldr	r3, [pc, #60]	; (26f4 <main+0x4c>)
    26b6:	4798      	blx	r3

	/* Configure device and enable. */
	configure_i2c_master();
    26b8:	4b0f      	ldr	r3, [pc, #60]	; (26f8 <main+0x50>)
    26ba:	4798      	blx	r3

	/************************************************************************/
	/* Create timer to toggle Pin 13 LED                                                                      */
	/************************************************************************/
	Timer_id = xTimerCreate("Timer",1000, pdTRUE,0,mrBlinky);
    26bc:	4b0f      	ldr	r3, [pc, #60]	; (26fc <main+0x54>)
    26be:	9300      	str	r3, [sp, #0]
    26c0:	2300      	movs	r3, #0
    26c2:	2201      	movs	r2, #1
    26c4:	21fa      	movs	r1, #250	; 0xfa
    26c6:	0089      	lsls	r1, r1, #2
    26c8:	480d      	ldr	r0, [pc, #52]	; (2700 <main+0x58>)
    26ca:	4c0e      	ldr	r4, [pc, #56]	; (2704 <main+0x5c>)
    26cc:	47a0      	blx	r4
    26ce:	0004      	movs	r4, r0
	xTimerStart(Timer_id, 0);
    26d0:	4b0d      	ldr	r3, [pc, #52]	; (2708 <main+0x60>)
    26d2:	4798      	blx	r3
    26d4:	0002      	movs	r2, r0
    26d6:	2300      	movs	r3, #0
    26d8:	9300      	str	r3, [sp, #0]
    26da:	2100      	movs	r1, #0
    26dc:	0020      	movs	r0, r4
    26de:	4c0b      	ldr	r4, [pc, #44]	; (270c <main+0x64>)
    26e0:	47a0      	blx	r4
	vTaskStartScheduler();
    26e2:	4b0b      	ldr	r3, [pc, #44]	; (2710 <main+0x68>)
    26e4:	4798      	blx	r3
	//while(1);
}
    26e6:	2000      	movs	r0, #0
    26e8:	b002      	add	sp, #8
    26ea:	bd10      	pop	{r4, pc}
    26ec:	0000249d 	.word	0x0000249d
    26f0:	000020a1 	.word	0x000020a1
    26f4:	00002669 	.word	0x00002669
    26f8:	000025b1 	.word	0x000025b1
    26fc:	00002659 	.word	0x00002659
    2700:	000041f8 	.word	0x000041f8
    2704:	00001911 	.word	0x00001911
    2708:	00001209 	.word	0x00001209
    270c:	0000195d 	.word	0x0000195d
    2710:	00001199 	.word	0x00001199

00002714 <__udivsi3>:
    2714:	2200      	movs	r2, #0
    2716:	0843      	lsrs	r3, r0, #1
    2718:	428b      	cmp	r3, r1
    271a:	d374      	bcc.n	2806 <__udivsi3+0xf2>
    271c:	0903      	lsrs	r3, r0, #4
    271e:	428b      	cmp	r3, r1
    2720:	d35f      	bcc.n	27e2 <__udivsi3+0xce>
    2722:	0a03      	lsrs	r3, r0, #8
    2724:	428b      	cmp	r3, r1
    2726:	d344      	bcc.n	27b2 <__udivsi3+0x9e>
    2728:	0b03      	lsrs	r3, r0, #12
    272a:	428b      	cmp	r3, r1
    272c:	d328      	bcc.n	2780 <__udivsi3+0x6c>
    272e:	0c03      	lsrs	r3, r0, #16
    2730:	428b      	cmp	r3, r1
    2732:	d30d      	bcc.n	2750 <__udivsi3+0x3c>
    2734:	22ff      	movs	r2, #255	; 0xff
    2736:	0209      	lsls	r1, r1, #8
    2738:	ba12      	rev	r2, r2
    273a:	0c03      	lsrs	r3, r0, #16
    273c:	428b      	cmp	r3, r1
    273e:	d302      	bcc.n	2746 <__udivsi3+0x32>
    2740:	1212      	asrs	r2, r2, #8
    2742:	0209      	lsls	r1, r1, #8
    2744:	d065      	beq.n	2812 <__udivsi3+0xfe>
    2746:	0b03      	lsrs	r3, r0, #12
    2748:	428b      	cmp	r3, r1
    274a:	d319      	bcc.n	2780 <__udivsi3+0x6c>
    274c:	e000      	b.n	2750 <__udivsi3+0x3c>
    274e:	0a09      	lsrs	r1, r1, #8
    2750:	0bc3      	lsrs	r3, r0, #15
    2752:	428b      	cmp	r3, r1
    2754:	d301      	bcc.n	275a <__udivsi3+0x46>
    2756:	03cb      	lsls	r3, r1, #15
    2758:	1ac0      	subs	r0, r0, r3
    275a:	4152      	adcs	r2, r2
    275c:	0b83      	lsrs	r3, r0, #14
    275e:	428b      	cmp	r3, r1
    2760:	d301      	bcc.n	2766 <__udivsi3+0x52>
    2762:	038b      	lsls	r3, r1, #14
    2764:	1ac0      	subs	r0, r0, r3
    2766:	4152      	adcs	r2, r2
    2768:	0b43      	lsrs	r3, r0, #13
    276a:	428b      	cmp	r3, r1
    276c:	d301      	bcc.n	2772 <__udivsi3+0x5e>
    276e:	034b      	lsls	r3, r1, #13
    2770:	1ac0      	subs	r0, r0, r3
    2772:	4152      	adcs	r2, r2
    2774:	0b03      	lsrs	r3, r0, #12
    2776:	428b      	cmp	r3, r1
    2778:	d301      	bcc.n	277e <__udivsi3+0x6a>
    277a:	030b      	lsls	r3, r1, #12
    277c:	1ac0      	subs	r0, r0, r3
    277e:	4152      	adcs	r2, r2
    2780:	0ac3      	lsrs	r3, r0, #11
    2782:	428b      	cmp	r3, r1
    2784:	d301      	bcc.n	278a <__udivsi3+0x76>
    2786:	02cb      	lsls	r3, r1, #11
    2788:	1ac0      	subs	r0, r0, r3
    278a:	4152      	adcs	r2, r2
    278c:	0a83      	lsrs	r3, r0, #10
    278e:	428b      	cmp	r3, r1
    2790:	d301      	bcc.n	2796 <__udivsi3+0x82>
    2792:	028b      	lsls	r3, r1, #10
    2794:	1ac0      	subs	r0, r0, r3
    2796:	4152      	adcs	r2, r2
    2798:	0a43      	lsrs	r3, r0, #9
    279a:	428b      	cmp	r3, r1
    279c:	d301      	bcc.n	27a2 <__udivsi3+0x8e>
    279e:	024b      	lsls	r3, r1, #9
    27a0:	1ac0      	subs	r0, r0, r3
    27a2:	4152      	adcs	r2, r2
    27a4:	0a03      	lsrs	r3, r0, #8
    27a6:	428b      	cmp	r3, r1
    27a8:	d301      	bcc.n	27ae <__udivsi3+0x9a>
    27aa:	020b      	lsls	r3, r1, #8
    27ac:	1ac0      	subs	r0, r0, r3
    27ae:	4152      	adcs	r2, r2
    27b0:	d2cd      	bcs.n	274e <__udivsi3+0x3a>
    27b2:	09c3      	lsrs	r3, r0, #7
    27b4:	428b      	cmp	r3, r1
    27b6:	d301      	bcc.n	27bc <__udivsi3+0xa8>
    27b8:	01cb      	lsls	r3, r1, #7
    27ba:	1ac0      	subs	r0, r0, r3
    27bc:	4152      	adcs	r2, r2
    27be:	0983      	lsrs	r3, r0, #6
    27c0:	428b      	cmp	r3, r1
    27c2:	d301      	bcc.n	27c8 <__udivsi3+0xb4>
    27c4:	018b      	lsls	r3, r1, #6
    27c6:	1ac0      	subs	r0, r0, r3
    27c8:	4152      	adcs	r2, r2
    27ca:	0943      	lsrs	r3, r0, #5
    27cc:	428b      	cmp	r3, r1
    27ce:	d301      	bcc.n	27d4 <__udivsi3+0xc0>
    27d0:	014b      	lsls	r3, r1, #5
    27d2:	1ac0      	subs	r0, r0, r3
    27d4:	4152      	adcs	r2, r2
    27d6:	0903      	lsrs	r3, r0, #4
    27d8:	428b      	cmp	r3, r1
    27da:	d301      	bcc.n	27e0 <__udivsi3+0xcc>
    27dc:	010b      	lsls	r3, r1, #4
    27de:	1ac0      	subs	r0, r0, r3
    27e0:	4152      	adcs	r2, r2
    27e2:	08c3      	lsrs	r3, r0, #3
    27e4:	428b      	cmp	r3, r1
    27e6:	d301      	bcc.n	27ec <__udivsi3+0xd8>
    27e8:	00cb      	lsls	r3, r1, #3
    27ea:	1ac0      	subs	r0, r0, r3
    27ec:	4152      	adcs	r2, r2
    27ee:	0883      	lsrs	r3, r0, #2
    27f0:	428b      	cmp	r3, r1
    27f2:	d301      	bcc.n	27f8 <__udivsi3+0xe4>
    27f4:	008b      	lsls	r3, r1, #2
    27f6:	1ac0      	subs	r0, r0, r3
    27f8:	4152      	adcs	r2, r2
    27fa:	0843      	lsrs	r3, r0, #1
    27fc:	428b      	cmp	r3, r1
    27fe:	d301      	bcc.n	2804 <__udivsi3+0xf0>
    2800:	004b      	lsls	r3, r1, #1
    2802:	1ac0      	subs	r0, r0, r3
    2804:	4152      	adcs	r2, r2
    2806:	1a41      	subs	r1, r0, r1
    2808:	d200      	bcs.n	280c <__udivsi3+0xf8>
    280a:	4601      	mov	r1, r0
    280c:	4152      	adcs	r2, r2
    280e:	4610      	mov	r0, r2
    2810:	4770      	bx	lr
    2812:	e7ff      	b.n	2814 <__udivsi3+0x100>
    2814:	b501      	push	{r0, lr}
    2816:	2000      	movs	r0, #0
    2818:	f000 f806 	bl	2828 <__aeabi_idiv0>
    281c:	bd02      	pop	{r1, pc}
    281e:	46c0      	nop			; (mov r8, r8)

00002820 <__aeabi_uidivmod>:
    2820:	2900      	cmp	r1, #0
    2822:	d0f7      	beq.n	2814 <__udivsi3+0x100>
    2824:	e776      	b.n	2714 <__udivsi3>
    2826:	4770      	bx	lr

00002828 <__aeabi_idiv0>:
    2828:	4770      	bx	lr
    282a:	46c0      	nop			; (mov r8, r8)

0000282c <__aeabi_dadd>:
    282c:	b5f8      	push	{r3, r4, r5, r6, r7, lr}
    282e:	4645      	mov	r5, r8
    2830:	46de      	mov	lr, fp
    2832:	4657      	mov	r7, sl
    2834:	464e      	mov	r6, r9
    2836:	030c      	lsls	r4, r1, #12
    2838:	b5e0      	push	{r5, r6, r7, lr}
    283a:	004e      	lsls	r6, r1, #1
    283c:	0fc9      	lsrs	r1, r1, #31
    283e:	4688      	mov	r8, r1
    2840:	000d      	movs	r5, r1
    2842:	0a61      	lsrs	r1, r4, #9
    2844:	0f44      	lsrs	r4, r0, #29
    2846:	430c      	orrs	r4, r1
    2848:	00c7      	lsls	r7, r0, #3
    284a:	0319      	lsls	r1, r3, #12
    284c:	0058      	lsls	r0, r3, #1
    284e:	0fdb      	lsrs	r3, r3, #31
    2850:	469b      	mov	fp, r3
    2852:	0a4b      	lsrs	r3, r1, #9
    2854:	0f51      	lsrs	r1, r2, #29
    2856:	430b      	orrs	r3, r1
    2858:	0d76      	lsrs	r6, r6, #21
    285a:	0d40      	lsrs	r0, r0, #21
    285c:	0019      	movs	r1, r3
    285e:	00d2      	lsls	r2, r2, #3
    2860:	45d8      	cmp	r8, fp
    2862:	d100      	bne.n	2866 <__aeabi_dadd+0x3a>
    2864:	e0ae      	b.n	29c4 <__aeabi_dadd+0x198>
    2866:	1a35      	subs	r5, r6, r0
    2868:	2d00      	cmp	r5, #0
    286a:	dc00      	bgt.n	286e <__aeabi_dadd+0x42>
    286c:	e0f6      	b.n	2a5c <__aeabi_dadd+0x230>
    286e:	2800      	cmp	r0, #0
    2870:	d10f      	bne.n	2892 <__aeabi_dadd+0x66>
    2872:	4313      	orrs	r3, r2
    2874:	d100      	bne.n	2878 <__aeabi_dadd+0x4c>
    2876:	e0db      	b.n	2a30 <__aeabi_dadd+0x204>
    2878:	1e6b      	subs	r3, r5, #1
    287a:	2b00      	cmp	r3, #0
    287c:	d000      	beq.n	2880 <__aeabi_dadd+0x54>
    287e:	e137      	b.n	2af0 <__aeabi_dadd+0x2c4>
    2880:	1aba      	subs	r2, r7, r2
    2882:	4297      	cmp	r7, r2
    2884:	41bf      	sbcs	r7, r7
    2886:	1a64      	subs	r4, r4, r1
    2888:	427f      	negs	r7, r7
    288a:	1be4      	subs	r4, r4, r7
    288c:	2601      	movs	r6, #1
    288e:	0017      	movs	r7, r2
    2890:	e024      	b.n	28dc <__aeabi_dadd+0xb0>
    2892:	4bc6      	ldr	r3, [pc, #792]	; (2bac <__aeabi_dadd+0x380>)
    2894:	429e      	cmp	r6, r3
    2896:	d04d      	beq.n	2934 <__aeabi_dadd+0x108>
    2898:	2380      	movs	r3, #128	; 0x80
    289a:	041b      	lsls	r3, r3, #16
    289c:	4319      	orrs	r1, r3
    289e:	2d38      	cmp	r5, #56	; 0x38
    28a0:	dd00      	ble.n	28a4 <__aeabi_dadd+0x78>
    28a2:	e107      	b.n	2ab4 <__aeabi_dadd+0x288>
    28a4:	2d1f      	cmp	r5, #31
    28a6:	dd00      	ble.n	28aa <__aeabi_dadd+0x7e>
    28a8:	e138      	b.n	2b1c <__aeabi_dadd+0x2f0>
    28aa:	2020      	movs	r0, #32
    28ac:	1b43      	subs	r3, r0, r5
    28ae:	469a      	mov	sl, r3
    28b0:	000b      	movs	r3, r1
    28b2:	4650      	mov	r0, sl
    28b4:	4083      	lsls	r3, r0
    28b6:	4699      	mov	r9, r3
    28b8:	0013      	movs	r3, r2
    28ba:	4648      	mov	r0, r9
    28bc:	40eb      	lsrs	r3, r5
    28be:	4318      	orrs	r0, r3
    28c0:	0003      	movs	r3, r0
    28c2:	4650      	mov	r0, sl
    28c4:	4082      	lsls	r2, r0
    28c6:	1e50      	subs	r0, r2, #1
    28c8:	4182      	sbcs	r2, r0
    28ca:	40e9      	lsrs	r1, r5
    28cc:	431a      	orrs	r2, r3
    28ce:	1aba      	subs	r2, r7, r2
    28d0:	1a61      	subs	r1, r4, r1
    28d2:	4297      	cmp	r7, r2
    28d4:	41a4      	sbcs	r4, r4
    28d6:	0017      	movs	r7, r2
    28d8:	4264      	negs	r4, r4
    28da:	1b0c      	subs	r4, r1, r4
    28dc:	0223      	lsls	r3, r4, #8
    28de:	d562      	bpl.n	29a6 <__aeabi_dadd+0x17a>
    28e0:	0264      	lsls	r4, r4, #9
    28e2:	0a65      	lsrs	r5, r4, #9
    28e4:	2d00      	cmp	r5, #0
    28e6:	d100      	bne.n	28ea <__aeabi_dadd+0xbe>
    28e8:	e0df      	b.n	2aaa <__aeabi_dadd+0x27e>
    28ea:	0028      	movs	r0, r5
    28ec:	f001 fbe4 	bl	40b8 <__clzsi2>
    28f0:	0003      	movs	r3, r0
    28f2:	3b08      	subs	r3, #8
    28f4:	2b1f      	cmp	r3, #31
    28f6:	dd00      	ble.n	28fa <__aeabi_dadd+0xce>
    28f8:	e0d2      	b.n	2aa0 <__aeabi_dadd+0x274>
    28fa:	2220      	movs	r2, #32
    28fc:	003c      	movs	r4, r7
    28fe:	1ad2      	subs	r2, r2, r3
    2900:	409d      	lsls	r5, r3
    2902:	40d4      	lsrs	r4, r2
    2904:	409f      	lsls	r7, r3
    2906:	4325      	orrs	r5, r4
    2908:	429e      	cmp	r6, r3
    290a:	dd00      	ble.n	290e <__aeabi_dadd+0xe2>
    290c:	e0c4      	b.n	2a98 <__aeabi_dadd+0x26c>
    290e:	1b9e      	subs	r6, r3, r6
    2910:	1c73      	adds	r3, r6, #1
    2912:	2b1f      	cmp	r3, #31
    2914:	dd00      	ble.n	2918 <__aeabi_dadd+0xec>
    2916:	e0f1      	b.n	2afc <__aeabi_dadd+0x2d0>
    2918:	2220      	movs	r2, #32
    291a:	0038      	movs	r0, r7
    291c:	0029      	movs	r1, r5
    291e:	1ad2      	subs	r2, r2, r3
    2920:	40d8      	lsrs	r0, r3
    2922:	4091      	lsls	r1, r2
    2924:	4097      	lsls	r7, r2
    2926:	002c      	movs	r4, r5
    2928:	4301      	orrs	r1, r0
    292a:	1e78      	subs	r0, r7, #1
    292c:	4187      	sbcs	r7, r0
    292e:	40dc      	lsrs	r4, r3
    2930:	2600      	movs	r6, #0
    2932:	430f      	orrs	r7, r1
    2934:	077b      	lsls	r3, r7, #29
    2936:	d009      	beq.n	294c <__aeabi_dadd+0x120>
    2938:	230f      	movs	r3, #15
    293a:	403b      	ands	r3, r7
    293c:	2b04      	cmp	r3, #4
    293e:	d005      	beq.n	294c <__aeabi_dadd+0x120>
    2940:	1d3b      	adds	r3, r7, #4
    2942:	42bb      	cmp	r3, r7
    2944:	41bf      	sbcs	r7, r7
    2946:	427f      	negs	r7, r7
    2948:	19e4      	adds	r4, r4, r7
    294a:	001f      	movs	r7, r3
    294c:	0223      	lsls	r3, r4, #8
    294e:	d52c      	bpl.n	29aa <__aeabi_dadd+0x17e>
    2950:	4b96      	ldr	r3, [pc, #600]	; (2bac <__aeabi_dadd+0x380>)
    2952:	3601      	adds	r6, #1
    2954:	429e      	cmp	r6, r3
    2956:	d100      	bne.n	295a <__aeabi_dadd+0x12e>
    2958:	e09a      	b.n	2a90 <__aeabi_dadd+0x264>
    295a:	4645      	mov	r5, r8
    295c:	4b94      	ldr	r3, [pc, #592]	; (2bb0 <__aeabi_dadd+0x384>)
    295e:	08ff      	lsrs	r7, r7, #3
    2960:	401c      	ands	r4, r3
    2962:	0760      	lsls	r0, r4, #29
    2964:	0576      	lsls	r6, r6, #21
    2966:	0264      	lsls	r4, r4, #9
    2968:	4307      	orrs	r7, r0
    296a:	0b24      	lsrs	r4, r4, #12
    296c:	0d76      	lsrs	r6, r6, #21
    296e:	2100      	movs	r1, #0
    2970:	0324      	lsls	r4, r4, #12
    2972:	0b23      	lsrs	r3, r4, #12
    2974:	0d0c      	lsrs	r4, r1, #20
    2976:	4a8f      	ldr	r2, [pc, #572]	; (2bb4 <__aeabi_dadd+0x388>)
    2978:	0524      	lsls	r4, r4, #20
    297a:	431c      	orrs	r4, r3
    297c:	4014      	ands	r4, r2
    297e:	0533      	lsls	r3, r6, #20
    2980:	4323      	orrs	r3, r4
    2982:	005b      	lsls	r3, r3, #1
    2984:	07ed      	lsls	r5, r5, #31
    2986:	085b      	lsrs	r3, r3, #1
    2988:	432b      	orrs	r3, r5
    298a:	0038      	movs	r0, r7
    298c:	0019      	movs	r1, r3
    298e:	bc3c      	pop	{r2, r3, r4, r5}
    2990:	4690      	mov	r8, r2
    2992:	4699      	mov	r9, r3
    2994:	46a2      	mov	sl, r4
    2996:	46ab      	mov	fp, r5
    2998:	bdf8      	pop	{r3, r4, r5, r6, r7, pc}
    299a:	4664      	mov	r4, ip
    299c:	4304      	orrs	r4, r0
    299e:	d100      	bne.n	29a2 <__aeabi_dadd+0x176>
    29a0:	e211      	b.n	2dc6 <__aeabi_dadd+0x59a>
    29a2:	0004      	movs	r4, r0
    29a4:	4667      	mov	r7, ip
    29a6:	077b      	lsls	r3, r7, #29
    29a8:	d1c6      	bne.n	2938 <__aeabi_dadd+0x10c>
    29aa:	4645      	mov	r5, r8
    29ac:	0760      	lsls	r0, r4, #29
    29ae:	08ff      	lsrs	r7, r7, #3
    29b0:	4307      	orrs	r7, r0
    29b2:	08e4      	lsrs	r4, r4, #3
    29b4:	4b7d      	ldr	r3, [pc, #500]	; (2bac <__aeabi_dadd+0x380>)
    29b6:	429e      	cmp	r6, r3
    29b8:	d030      	beq.n	2a1c <__aeabi_dadd+0x1f0>
    29ba:	0324      	lsls	r4, r4, #12
    29bc:	0576      	lsls	r6, r6, #21
    29be:	0b24      	lsrs	r4, r4, #12
    29c0:	0d76      	lsrs	r6, r6, #21
    29c2:	e7d4      	b.n	296e <__aeabi_dadd+0x142>
    29c4:	1a33      	subs	r3, r6, r0
    29c6:	469a      	mov	sl, r3
    29c8:	2b00      	cmp	r3, #0
    29ca:	dd78      	ble.n	2abe <__aeabi_dadd+0x292>
    29cc:	2800      	cmp	r0, #0
    29ce:	d031      	beq.n	2a34 <__aeabi_dadd+0x208>
    29d0:	4876      	ldr	r0, [pc, #472]	; (2bac <__aeabi_dadd+0x380>)
    29d2:	4286      	cmp	r6, r0
    29d4:	d0ae      	beq.n	2934 <__aeabi_dadd+0x108>
    29d6:	2080      	movs	r0, #128	; 0x80
    29d8:	0400      	lsls	r0, r0, #16
    29da:	4301      	orrs	r1, r0
    29dc:	4653      	mov	r3, sl
    29de:	2b38      	cmp	r3, #56	; 0x38
    29e0:	dc00      	bgt.n	29e4 <__aeabi_dadd+0x1b8>
    29e2:	e0e9      	b.n	2bb8 <__aeabi_dadd+0x38c>
    29e4:	430a      	orrs	r2, r1
    29e6:	1e51      	subs	r1, r2, #1
    29e8:	418a      	sbcs	r2, r1
    29ea:	2100      	movs	r1, #0
    29ec:	19d2      	adds	r2, r2, r7
    29ee:	42ba      	cmp	r2, r7
    29f0:	41bf      	sbcs	r7, r7
    29f2:	1909      	adds	r1, r1, r4
    29f4:	427c      	negs	r4, r7
    29f6:	0017      	movs	r7, r2
    29f8:	190c      	adds	r4, r1, r4
    29fa:	0223      	lsls	r3, r4, #8
    29fc:	d5d3      	bpl.n	29a6 <__aeabi_dadd+0x17a>
    29fe:	4b6b      	ldr	r3, [pc, #428]	; (2bac <__aeabi_dadd+0x380>)
    2a00:	3601      	adds	r6, #1
    2a02:	429e      	cmp	r6, r3
    2a04:	d100      	bne.n	2a08 <__aeabi_dadd+0x1dc>
    2a06:	e13a      	b.n	2c7e <__aeabi_dadd+0x452>
    2a08:	2001      	movs	r0, #1
    2a0a:	4b69      	ldr	r3, [pc, #420]	; (2bb0 <__aeabi_dadd+0x384>)
    2a0c:	401c      	ands	r4, r3
    2a0e:	087b      	lsrs	r3, r7, #1
    2a10:	4007      	ands	r7, r0
    2a12:	431f      	orrs	r7, r3
    2a14:	07e0      	lsls	r0, r4, #31
    2a16:	4307      	orrs	r7, r0
    2a18:	0864      	lsrs	r4, r4, #1
    2a1a:	e78b      	b.n	2934 <__aeabi_dadd+0x108>
    2a1c:	0023      	movs	r3, r4
    2a1e:	433b      	orrs	r3, r7
    2a20:	d100      	bne.n	2a24 <__aeabi_dadd+0x1f8>
    2a22:	e1cb      	b.n	2dbc <__aeabi_dadd+0x590>
    2a24:	2280      	movs	r2, #128	; 0x80
    2a26:	0312      	lsls	r2, r2, #12
    2a28:	4314      	orrs	r4, r2
    2a2a:	0324      	lsls	r4, r4, #12
    2a2c:	0b24      	lsrs	r4, r4, #12
    2a2e:	e79e      	b.n	296e <__aeabi_dadd+0x142>
    2a30:	002e      	movs	r6, r5
    2a32:	e77f      	b.n	2934 <__aeabi_dadd+0x108>
    2a34:	0008      	movs	r0, r1
    2a36:	4310      	orrs	r0, r2
    2a38:	d100      	bne.n	2a3c <__aeabi_dadd+0x210>
    2a3a:	e0b4      	b.n	2ba6 <__aeabi_dadd+0x37a>
    2a3c:	1e58      	subs	r0, r3, #1
    2a3e:	2800      	cmp	r0, #0
    2a40:	d000      	beq.n	2a44 <__aeabi_dadd+0x218>
    2a42:	e0de      	b.n	2c02 <__aeabi_dadd+0x3d6>
    2a44:	18ba      	adds	r2, r7, r2
    2a46:	42ba      	cmp	r2, r7
    2a48:	419b      	sbcs	r3, r3
    2a4a:	1864      	adds	r4, r4, r1
    2a4c:	425b      	negs	r3, r3
    2a4e:	18e4      	adds	r4, r4, r3
    2a50:	0017      	movs	r7, r2
    2a52:	2601      	movs	r6, #1
    2a54:	0223      	lsls	r3, r4, #8
    2a56:	d5a6      	bpl.n	29a6 <__aeabi_dadd+0x17a>
    2a58:	2602      	movs	r6, #2
    2a5a:	e7d5      	b.n	2a08 <__aeabi_dadd+0x1dc>
    2a5c:	2d00      	cmp	r5, #0
    2a5e:	d16e      	bne.n	2b3e <__aeabi_dadd+0x312>
    2a60:	1c70      	adds	r0, r6, #1
    2a62:	0540      	lsls	r0, r0, #21
    2a64:	0d40      	lsrs	r0, r0, #21
    2a66:	2801      	cmp	r0, #1
    2a68:	dc00      	bgt.n	2a6c <__aeabi_dadd+0x240>
    2a6a:	e0f9      	b.n	2c60 <__aeabi_dadd+0x434>
    2a6c:	1ab8      	subs	r0, r7, r2
    2a6e:	4684      	mov	ip, r0
    2a70:	4287      	cmp	r7, r0
    2a72:	4180      	sbcs	r0, r0
    2a74:	1ae5      	subs	r5, r4, r3
    2a76:	4240      	negs	r0, r0
    2a78:	1a2d      	subs	r5, r5, r0
    2a7a:	0228      	lsls	r0, r5, #8
    2a7c:	d400      	bmi.n	2a80 <__aeabi_dadd+0x254>
    2a7e:	e089      	b.n	2b94 <__aeabi_dadd+0x368>
    2a80:	1bd7      	subs	r7, r2, r7
    2a82:	42ba      	cmp	r2, r7
    2a84:	4192      	sbcs	r2, r2
    2a86:	1b1c      	subs	r4, r3, r4
    2a88:	4252      	negs	r2, r2
    2a8a:	1aa5      	subs	r5, r4, r2
    2a8c:	46d8      	mov	r8, fp
    2a8e:	e729      	b.n	28e4 <__aeabi_dadd+0xb8>
    2a90:	4645      	mov	r5, r8
    2a92:	2400      	movs	r4, #0
    2a94:	2700      	movs	r7, #0
    2a96:	e76a      	b.n	296e <__aeabi_dadd+0x142>
    2a98:	4c45      	ldr	r4, [pc, #276]	; (2bb0 <__aeabi_dadd+0x384>)
    2a9a:	1af6      	subs	r6, r6, r3
    2a9c:	402c      	ands	r4, r5
    2a9e:	e749      	b.n	2934 <__aeabi_dadd+0x108>
    2aa0:	003d      	movs	r5, r7
    2aa2:	3828      	subs	r0, #40	; 0x28
    2aa4:	4085      	lsls	r5, r0
    2aa6:	2700      	movs	r7, #0
    2aa8:	e72e      	b.n	2908 <__aeabi_dadd+0xdc>
    2aaa:	0038      	movs	r0, r7
    2aac:	f001 fb04 	bl	40b8 <__clzsi2>
    2ab0:	3020      	adds	r0, #32
    2ab2:	e71d      	b.n	28f0 <__aeabi_dadd+0xc4>
    2ab4:	430a      	orrs	r2, r1
    2ab6:	1e51      	subs	r1, r2, #1
    2ab8:	418a      	sbcs	r2, r1
    2aba:	2100      	movs	r1, #0
    2abc:	e707      	b.n	28ce <__aeabi_dadd+0xa2>
    2abe:	2b00      	cmp	r3, #0
    2ac0:	d000      	beq.n	2ac4 <__aeabi_dadd+0x298>
    2ac2:	e0f3      	b.n	2cac <__aeabi_dadd+0x480>
    2ac4:	1c70      	adds	r0, r6, #1
    2ac6:	0543      	lsls	r3, r0, #21
    2ac8:	0d5b      	lsrs	r3, r3, #21
    2aca:	2b01      	cmp	r3, #1
    2acc:	dc00      	bgt.n	2ad0 <__aeabi_dadd+0x2a4>
    2ace:	e0ad      	b.n	2c2c <__aeabi_dadd+0x400>
    2ad0:	4b36      	ldr	r3, [pc, #216]	; (2bac <__aeabi_dadd+0x380>)
    2ad2:	4298      	cmp	r0, r3
    2ad4:	d100      	bne.n	2ad8 <__aeabi_dadd+0x2ac>
    2ad6:	e0d1      	b.n	2c7c <__aeabi_dadd+0x450>
    2ad8:	18ba      	adds	r2, r7, r2
    2ada:	42ba      	cmp	r2, r7
    2adc:	41bf      	sbcs	r7, r7
    2ade:	1864      	adds	r4, r4, r1
    2ae0:	427f      	negs	r7, r7
    2ae2:	19e4      	adds	r4, r4, r7
    2ae4:	07e7      	lsls	r7, r4, #31
    2ae6:	0852      	lsrs	r2, r2, #1
    2ae8:	4317      	orrs	r7, r2
    2aea:	0864      	lsrs	r4, r4, #1
    2aec:	0006      	movs	r6, r0
    2aee:	e721      	b.n	2934 <__aeabi_dadd+0x108>
    2af0:	482e      	ldr	r0, [pc, #184]	; (2bac <__aeabi_dadd+0x380>)
    2af2:	4285      	cmp	r5, r0
    2af4:	d100      	bne.n	2af8 <__aeabi_dadd+0x2cc>
    2af6:	e093      	b.n	2c20 <__aeabi_dadd+0x3f4>
    2af8:	001d      	movs	r5, r3
    2afa:	e6d0      	b.n	289e <__aeabi_dadd+0x72>
    2afc:	0029      	movs	r1, r5
    2afe:	3e1f      	subs	r6, #31
    2b00:	40f1      	lsrs	r1, r6
    2b02:	2b20      	cmp	r3, #32
    2b04:	d100      	bne.n	2b08 <__aeabi_dadd+0x2dc>
    2b06:	e08d      	b.n	2c24 <__aeabi_dadd+0x3f8>
    2b08:	2240      	movs	r2, #64	; 0x40
    2b0a:	1ad3      	subs	r3, r2, r3
    2b0c:	409d      	lsls	r5, r3
    2b0e:	432f      	orrs	r7, r5
    2b10:	1e7d      	subs	r5, r7, #1
    2b12:	41af      	sbcs	r7, r5
    2b14:	2400      	movs	r4, #0
    2b16:	430f      	orrs	r7, r1
    2b18:	2600      	movs	r6, #0
    2b1a:	e744      	b.n	29a6 <__aeabi_dadd+0x17a>
    2b1c:	002b      	movs	r3, r5
    2b1e:	0008      	movs	r0, r1
    2b20:	3b20      	subs	r3, #32
    2b22:	40d8      	lsrs	r0, r3
    2b24:	0003      	movs	r3, r0
    2b26:	2d20      	cmp	r5, #32
    2b28:	d100      	bne.n	2b2c <__aeabi_dadd+0x300>
    2b2a:	e07d      	b.n	2c28 <__aeabi_dadd+0x3fc>
    2b2c:	2040      	movs	r0, #64	; 0x40
    2b2e:	1b45      	subs	r5, r0, r5
    2b30:	40a9      	lsls	r1, r5
    2b32:	430a      	orrs	r2, r1
    2b34:	1e51      	subs	r1, r2, #1
    2b36:	418a      	sbcs	r2, r1
    2b38:	2100      	movs	r1, #0
    2b3a:	431a      	orrs	r2, r3
    2b3c:	e6c7      	b.n	28ce <__aeabi_dadd+0xa2>
    2b3e:	2e00      	cmp	r6, #0
    2b40:	d050      	beq.n	2be4 <__aeabi_dadd+0x3b8>
    2b42:	4e1a      	ldr	r6, [pc, #104]	; (2bac <__aeabi_dadd+0x380>)
    2b44:	42b0      	cmp	r0, r6
    2b46:	d057      	beq.n	2bf8 <__aeabi_dadd+0x3cc>
    2b48:	2680      	movs	r6, #128	; 0x80
    2b4a:	426b      	negs	r3, r5
    2b4c:	4699      	mov	r9, r3
    2b4e:	0436      	lsls	r6, r6, #16
    2b50:	4334      	orrs	r4, r6
    2b52:	464b      	mov	r3, r9
    2b54:	2b38      	cmp	r3, #56	; 0x38
    2b56:	dd00      	ble.n	2b5a <__aeabi_dadd+0x32e>
    2b58:	e0d6      	b.n	2d08 <__aeabi_dadd+0x4dc>
    2b5a:	2b1f      	cmp	r3, #31
    2b5c:	dd00      	ble.n	2b60 <__aeabi_dadd+0x334>
    2b5e:	e135      	b.n	2dcc <__aeabi_dadd+0x5a0>
    2b60:	2620      	movs	r6, #32
    2b62:	1af5      	subs	r5, r6, r3
    2b64:	0026      	movs	r6, r4
    2b66:	40ae      	lsls	r6, r5
    2b68:	46b2      	mov	sl, r6
    2b6a:	003e      	movs	r6, r7
    2b6c:	40de      	lsrs	r6, r3
    2b6e:	46ac      	mov	ip, r5
    2b70:	0035      	movs	r5, r6
    2b72:	4656      	mov	r6, sl
    2b74:	432e      	orrs	r6, r5
    2b76:	4665      	mov	r5, ip
    2b78:	40af      	lsls	r7, r5
    2b7a:	1e7d      	subs	r5, r7, #1
    2b7c:	41af      	sbcs	r7, r5
    2b7e:	40dc      	lsrs	r4, r3
    2b80:	4337      	orrs	r7, r6
    2b82:	1bd7      	subs	r7, r2, r7
    2b84:	42ba      	cmp	r2, r7
    2b86:	4192      	sbcs	r2, r2
    2b88:	1b0c      	subs	r4, r1, r4
    2b8a:	4252      	negs	r2, r2
    2b8c:	1aa4      	subs	r4, r4, r2
    2b8e:	0006      	movs	r6, r0
    2b90:	46d8      	mov	r8, fp
    2b92:	e6a3      	b.n	28dc <__aeabi_dadd+0xb0>
    2b94:	4664      	mov	r4, ip
    2b96:	4667      	mov	r7, ip
    2b98:	432c      	orrs	r4, r5
    2b9a:	d000      	beq.n	2b9e <__aeabi_dadd+0x372>
    2b9c:	e6a2      	b.n	28e4 <__aeabi_dadd+0xb8>
    2b9e:	2500      	movs	r5, #0
    2ba0:	2600      	movs	r6, #0
    2ba2:	2700      	movs	r7, #0
    2ba4:	e706      	b.n	29b4 <__aeabi_dadd+0x188>
    2ba6:	001e      	movs	r6, r3
    2ba8:	e6c4      	b.n	2934 <__aeabi_dadd+0x108>
    2baa:	46c0      	nop			; (mov r8, r8)
    2bac:	000007ff 	.word	0x000007ff
    2bb0:	ff7fffff 	.word	0xff7fffff
    2bb4:	800fffff 	.word	0x800fffff
    2bb8:	2b1f      	cmp	r3, #31
    2bba:	dc63      	bgt.n	2c84 <__aeabi_dadd+0x458>
    2bbc:	2020      	movs	r0, #32
    2bbe:	1ac3      	subs	r3, r0, r3
    2bc0:	0008      	movs	r0, r1
    2bc2:	4098      	lsls	r0, r3
    2bc4:	469c      	mov	ip, r3
    2bc6:	4683      	mov	fp, r0
    2bc8:	4653      	mov	r3, sl
    2bca:	0010      	movs	r0, r2
    2bcc:	40d8      	lsrs	r0, r3
    2bce:	0003      	movs	r3, r0
    2bd0:	4658      	mov	r0, fp
    2bd2:	4318      	orrs	r0, r3
    2bd4:	4663      	mov	r3, ip
    2bd6:	409a      	lsls	r2, r3
    2bd8:	1e53      	subs	r3, r2, #1
    2bda:	419a      	sbcs	r2, r3
    2bdc:	4653      	mov	r3, sl
    2bde:	4302      	orrs	r2, r0
    2be0:	40d9      	lsrs	r1, r3
    2be2:	e703      	b.n	29ec <__aeabi_dadd+0x1c0>
    2be4:	0026      	movs	r6, r4
    2be6:	433e      	orrs	r6, r7
    2be8:	d006      	beq.n	2bf8 <__aeabi_dadd+0x3cc>
    2bea:	43eb      	mvns	r3, r5
    2bec:	4699      	mov	r9, r3
    2bee:	2b00      	cmp	r3, #0
    2bf0:	d0c7      	beq.n	2b82 <__aeabi_dadd+0x356>
    2bf2:	4e94      	ldr	r6, [pc, #592]	; (2e44 <__aeabi_dadd+0x618>)
    2bf4:	42b0      	cmp	r0, r6
    2bf6:	d1ac      	bne.n	2b52 <__aeabi_dadd+0x326>
    2bf8:	000c      	movs	r4, r1
    2bfa:	0017      	movs	r7, r2
    2bfc:	0006      	movs	r6, r0
    2bfe:	46d8      	mov	r8, fp
    2c00:	e698      	b.n	2934 <__aeabi_dadd+0x108>
    2c02:	4b90      	ldr	r3, [pc, #576]	; (2e44 <__aeabi_dadd+0x618>)
    2c04:	459a      	cmp	sl, r3
    2c06:	d00b      	beq.n	2c20 <__aeabi_dadd+0x3f4>
    2c08:	4682      	mov	sl, r0
    2c0a:	e6e7      	b.n	29dc <__aeabi_dadd+0x1b0>
    2c0c:	2800      	cmp	r0, #0
    2c0e:	d000      	beq.n	2c12 <__aeabi_dadd+0x3e6>
    2c10:	e09e      	b.n	2d50 <__aeabi_dadd+0x524>
    2c12:	0018      	movs	r0, r3
    2c14:	4310      	orrs	r0, r2
    2c16:	d100      	bne.n	2c1a <__aeabi_dadd+0x3ee>
    2c18:	e0e9      	b.n	2dee <__aeabi_dadd+0x5c2>
    2c1a:	001c      	movs	r4, r3
    2c1c:	0017      	movs	r7, r2
    2c1e:	46d8      	mov	r8, fp
    2c20:	4e88      	ldr	r6, [pc, #544]	; (2e44 <__aeabi_dadd+0x618>)
    2c22:	e687      	b.n	2934 <__aeabi_dadd+0x108>
    2c24:	2500      	movs	r5, #0
    2c26:	e772      	b.n	2b0e <__aeabi_dadd+0x2e2>
    2c28:	2100      	movs	r1, #0
    2c2a:	e782      	b.n	2b32 <__aeabi_dadd+0x306>
    2c2c:	0023      	movs	r3, r4
    2c2e:	433b      	orrs	r3, r7
    2c30:	2e00      	cmp	r6, #0
    2c32:	d000      	beq.n	2c36 <__aeabi_dadd+0x40a>
    2c34:	e0ab      	b.n	2d8e <__aeabi_dadd+0x562>
    2c36:	2b00      	cmp	r3, #0
    2c38:	d100      	bne.n	2c3c <__aeabi_dadd+0x410>
    2c3a:	e0e7      	b.n	2e0c <__aeabi_dadd+0x5e0>
    2c3c:	000b      	movs	r3, r1
    2c3e:	4313      	orrs	r3, r2
    2c40:	d100      	bne.n	2c44 <__aeabi_dadd+0x418>
    2c42:	e677      	b.n	2934 <__aeabi_dadd+0x108>
    2c44:	18ba      	adds	r2, r7, r2
    2c46:	42ba      	cmp	r2, r7
    2c48:	41bf      	sbcs	r7, r7
    2c4a:	1864      	adds	r4, r4, r1
    2c4c:	427f      	negs	r7, r7
    2c4e:	19e4      	adds	r4, r4, r7
    2c50:	0223      	lsls	r3, r4, #8
    2c52:	d400      	bmi.n	2c56 <__aeabi_dadd+0x42a>
    2c54:	e0f2      	b.n	2e3c <__aeabi_dadd+0x610>
    2c56:	4b7c      	ldr	r3, [pc, #496]	; (2e48 <__aeabi_dadd+0x61c>)
    2c58:	0017      	movs	r7, r2
    2c5a:	401c      	ands	r4, r3
    2c5c:	0006      	movs	r6, r0
    2c5e:	e669      	b.n	2934 <__aeabi_dadd+0x108>
    2c60:	0020      	movs	r0, r4
    2c62:	4338      	orrs	r0, r7
    2c64:	2e00      	cmp	r6, #0
    2c66:	d1d1      	bne.n	2c0c <__aeabi_dadd+0x3e0>
    2c68:	2800      	cmp	r0, #0
    2c6a:	d15b      	bne.n	2d24 <__aeabi_dadd+0x4f8>
    2c6c:	001c      	movs	r4, r3
    2c6e:	4314      	orrs	r4, r2
    2c70:	d100      	bne.n	2c74 <__aeabi_dadd+0x448>
    2c72:	e0a8      	b.n	2dc6 <__aeabi_dadd+0x59a>
    2c74:	001c      	movs	r4, r3
    2c76:	0017      	movs	r7, r2
    2c78:	46d8      	mov	r8, fp
    2c7a:	e65b      	b.n	2934 <__aeabi_dadd+0x108>
    2c7c:	0006      	movs	r6, r0
    2c7e:	2400      	movs	r4, #0
    2c80:	2700      	movs	r7, #0
    2c82:	e697      	b.n	29b4 <__aeabi_dadd+0x188>
    2c84:	4650      	mov	r0, sl
    2c86:	000b      	movs	r3, r1
    2c88:	3820      	subs	r0, #32
    2c8a:	40c3      	lsrs	r3, r0
    2c8c:	4699      	mov	r9, r3
    2c8e:	4653      	mov	r3, sl
    2c90:	2b20      	cmp	r3, #32
    2c92:	d100      	bne.n	2c96 <__aeabi_dadd+0x46a>
    2c94:	e095      	b.n	2dc2 <__aeabi_dadd+0x596>
    2c96:	2340      	movs	r3, #64	; 0x40
    2c98:	4650      	mov	r0, sl
    2c9a:	1a1b      	subs	r3, r3, r0
    2c9c:	4099      	lsls	r1, r3
    2c9e:	430a      	orrs	r2, r1
    2ca0:	1e51      	subs	r1, r2, #1
    2ca2:	418a      	sbcs	r2, r1
    2ca4:	464b      	mov	r3, r9
    2ca6:	2100      	movs	r1, #0
    2ca8:	431a      	orrs	r2, r3
    2caa:	e69f      	b.n	29ec <__aeabi_dadd+0x1c0>
    2cac:	2e00      	cmp	r6, #0
    2cae:	d130      	bne.n	2d12 <__aeabi_dadd+0x4e6>
    2cb0:	0026      	movs	r6, r4
    2cb2:	433e      	orrs	r6, r7
    2cb4:	d067      	beq.n	2d86 <__aeabi_dadd+0x55a>
    2cb6:	43db      	mvns	r3, r3
    2cb8:	469a      	mov	sl, r3
    2cba:	2b00      	cmp	r3, #0
    2cbc:	d01c      	beq.n	2cf8 <__aeabi_dadd+0x4cc>
    2cbe:	4e61      	ldr	r6, [pc, #388]	; (2e44 <__aeabi_dadd+0x618>)
    2cc0:	42b0      	cmp	r0, r6
    2cc2:	d060      	beq.n	2d86 <__aeabi_dadd+0x55a>
    2cc4:	4653      	mov	r3, sl
    2cc6:	2b38      	cmp	r3, #56	; 0x38
    2cc8:	dd00      	ble.n	2ccc <__aeabi_dadd+0x4a0>
    2cca:	e096      	b.n	2dfa <__aeabi_dadd+0x5ce>
    2ccc:	2b1f      	cmp	r3, #31
    2cce:	dd00      	ble.n	2cd2 <__aeabi_dadd+0x4a6>
    2cd0:	e09f      	b.n	2e12 <__aeabi_dadd+0x5e6>
    2cd2:	2620      	movs	r6, #32
    2cd4:	1af3      	subs	r3, r6, r3
    2cd6:	0026      	movs	r6, r4
    2cd8:	409e      	lsls	r6, r3
    2cda:	469c      	mov	ip, r3
    2cdc:	46b3      	mov	fp, r6
    2cde:	4653      	mov	r3, sl
    2ce0:	003e      	movs	r6, r7
    2ce2:	40de      	lsrs	r6, r3
    2ce4:	0033      	movs	r3, r6
    2ce6:	465e      	mov	r6, fp
    2ce8:	431e      	orrs	r6, r3
    2cea:	4663      	mov	r3, ip
    2cec:	409f      	lsls	r7, r3
    2cee:	1e7b      	subs	r3, r7, #1
    2cf0:	419f      	sbcs	r7, r3
    2cf2:	4653      	mov	r3, sl
    2cf4:	40dc      	lsrs	r4, r3
    2cf6:	4337      	orrs	r7, r6
    2cf8:	18bf      	adds	r7, r7, r2
    2cfa:	4297      	cmp	r7, r2
    2cfc:	4192      	sbcs	r2, r2
    2cfe:	1864      	adds	r4, r4, r1
    2d00:	4252      	negs	r2, r2
    2d02:	18a4      	adds	r4, r4, r2
    2d04:	0006      	movs	r6, r0
    2d06:	e678      	b.n	29fa <__aeabi_dadd+0x1ce>
    2d08:	4327      	orrs	r7, r4
    2d0a:	1e7c      	subs	r4, r7, #1
    2d0c:	41a7      	sbcs	r7, r4
    2d0e:	2400      	movs	r4, #0
    2d10:	e737      	b.n	2b82 <__aeabi_dadd+0x356>
    2d12:	4e4c      	ldr	r6, [pc, #304]	; (2e44 <__aeabi_dadd+0x618>)
    2d14:	42b0      	cmp	r0, r6
    2d16:	d036      	beq.n	2d86 <__aeabi_dadd+0x55a>
    2d18:	2680      	movs	r6, #128	; 0x80
    2d1a:	425b      	negs	r3, r3
    2d1c:	0436      	lsls	r6, r6, #16
    2d1e:	469a      	mov	sl, r3
    2d20:	4334      	orrs	r4, r6
    2d22:	e7cf      	b.n	2cc4 <__aeabi_dadd+0x498>
    2d24:	0018      	movs	r0, r3
    2d26:	4310      	orrs	r0, r2
    2d28:	d100      	bne.n	2d2c <__aeabi_dadd+0x500>
    2d2a:	e603      	b.n	2934 <__aeabi_dadd+0x108>
    2d2c:	1ab8      	subs	r0, r7, r2
    2d2e:	4684      	mov	ip, r0
    2d30:	4567      	cmp	r7, ip
    2d32:	41ad      	sbcs	r5, r5
    2d34:	1ae0      	subs	r0, r4, r3
    2d36:	426d      	negs	r5, r5
    2d38:	1b40      	subs	r0, r0, r5
    2d3a:	0205      	lsls	r5, r0, #8
    2d3c:	d400      	bmi.n	2d40 <__aeabi_dadd+0x514>
    2d3e:	e62c      	b.n	299a <__aeabi_dadd+0x16e>
    2d40:	1bd7      	subs	r7, r2, r7
    2d42:	42ba      	cmp	r2, r7
    2d44:	4192      	sbcs	r2, r2
    2d46:	1b1c      	subs	r4, r3, r4
    2d48:	4252      	negs	r2, r2
    2d4a:	1aa4      	subs	r4, r4, r2
    2d4c:	46d8      	mov	r8, fp
    2d4e:	e5f1      	b.n	2934 <__aeabi_dadd+0x108>
    2d50:	0018      	movs	r0, r3
    2d52:	4310      	orrs	r0, r2
    2d54:	d100      	bne.n	2d58 <__aeabi_dadd+0x52c>
    2d56:	e763      	b.n	2c20 <__aeabi_dadd+0x3f4>
    2d58:	08f8      	lsrs	r0, r7, #3
    2d5a:	0767      	lsls	r7, r4, #29
    2d5c:	4307      	orrs	r7, r0
    2d5e:	2080      	movs	r0, #128	; 0x80
    2d60:	08e4      	lsrs	r4, r4, #3
    2d62:	0300      	lsls	r0, r0, #12
    2d64:	4204      	tst	r4, r0
    2d66:	d008      	beq.n	2d7a <__aeabi_dadd+0x54e>
    2d68:	08dd      	lsrs	r5, r3, #3
    2d6a:	4205      	tst	r5, r0
    2d6c:	d105      	bne.n	2d7a <__aeabi_dadd+0x54e>
    2d6e:	08d2      	lsrs	r2, r2, #3
    2d70:	0759      	lsls	r1, r3, #29
    2d72:	4311      	orrs	r1, r2
    2d74:	000f      	movs	r7, r1
    2d76:	002c      	movs	r4, r5
    2d78:	46d8      	mov	r8, fp
    2d7a:	0f7b      	lsrs	r3, r7, #29
    2d7c:	00e4      	lsls	r4, r4, #3
    2d7e:	431c      	orrs	r4, r3
    2d80:	00ff      	lsls	r7, r7, #3
    2d82:	4e30      	ldr	r6, [pc, #192]	; (2e44 <__aeabi_dadd+0x618>)
    2d84:	e5d6      	b.n	2934 <__aeabi_dadd+0x108>
    2d86:	000c      	movs	r4, r1
    2d88:	0017      	movs	r7, r2
    2d8a:	0006      	movs	r6, r0
    2d8c:	e5d2      	b.n	2934 <__aeabi_dadd+0x108>
    2d8e:	2b00      	cmp	r3, #0
    2d90:	d038      	beq.n	2e04 <__aeabi_dadd+0x5d8>
    2d92:	000b      	movs	r3, r1
    2d94:	4313      	orrs	r3, r2
    2d96:	d100      	bne.n	2d9a <__aeabi_dadd+0x56e>
    2d98:	e742      	b.n	2c20 <__aeabi_dadd+0x3f4>
    2d9a:	08f8      	lsrs	r0, r7, #3
    2d9c:	0767      	lsls	r7, r4, #29
    2d9e:	4307      	orrs	r7, r0
    2da0:	2080      	movs	r0, #128	; 0x80
    2da2:	08e4      	lsrs	r4, r4, #3
    2da4:	0300      	lsls	r0, r0, #12
    2da6:	4204      	tst	r4, r0
    2da8:	d0e7      	beq.n	2d7a <__aeabi_dadd+0x54e>
    2daa:	08cb      	lsrs	r3, r1, #3
    2dac:	4203      	tst	r3, r0
    2dae:	d1e4      	bne.n	2d7a <__aeabi_dadd+0x54e>
    2db0:	08d2      	lsrs	r2, r2, #3
    2db2:	0749      	lsls	r1, r1, #29
    2db4:	4311      	orrs	r1, r2
    2db6:	000f      	movs	r7, r1
    2db8:	001c      	movs	r4, r3
    2dba:	e7de      	b.n	2d7a <__aeabi_dadd+0x54e>
    2dbc:	2700      	movs	r7, #0
    2dbe:	2400      	movs	r4, #0
    2dc0:	e5d5      	b.n	296e <__aeabi_dadd+0x142>
    2dc2:	2100      	movs	r1, #0
    2dc4:	e76b      	b.n	2c9e <__aeabi_dadd+0x472>
    2dc6:	2500      	movs	r5, #0
    2dc8:	2700      	movs	r7, #0
    2dca:	e5f3      	b.n	29b4 <__aeabi_dadd+0x188>
    2dcc:	464e      	mov	r6, r9
    2dce:	0025      	movs	r5, r4
    2dd0:	3e20      	subs	r6, #32
    2dd2:	40f5      	lsrs	r5, r6
    2dd4:	464b      	mov	r3, r9
    2dd6:	002e      	movs	r6, r5
    2dd8:	2b20      	cmp	r3, #32
    2dda:	d02d      	beq.n	2e38 <__aeabi_dadd+0x60c>
    2ddc:	2540      	movs	r5, #64	; 0x40
    2dde:	1aed      	subs	r5, r5, r3
    2de0:	40ac      	lsls	r4, r5
    2de2:	4327      	orrs	r7, r4
    2de4:	1e7c      	subs	r4, r7, #1
    2de6:	41a7      	sbcs	r7, r4
    2de8:	2400      	movs	r4, #0
    2dea:	4337      	orrs	r7, r6
    2dec:	e6c9      	b.n	2b82 <__aeabi_dadd+0x356>
    2dee:	2480      	movs	r4, #128	; 0x80
    2df0:	2500      	movs	r5, #0
    2df2:	0324      	lsls	r4, r4, #12
    2df4:	4e13      	ldr	r6, [pc, #76]	; (2e44 <__aeabi_dadd+0x618>)
    2df6:	2700      	movs	r7, #0
    2df8:	e5dc      	b.n	29b4 <__aeabi_dadd+0x188>
    2dfa:	4327      	orrs	r7, r4
    2dfc:	1e7c      	subs	r4, r7, #1
    2dfe:	41a7      	sbcs	r7, r4
    2e00:	2400      	movs	r4, #0
    2e02:	e779      	b.n	2cf8 <__aeabi_dadd+0x4cc>
    2e04:	000c      	movs	r4, r1
    2e06:	0017      	movs	r7, r2
    2e08:	4e0e      	ldr	r6, [pc, #56]	; (2e44 <__aeabi_dadd+0x618>)
    2e0a:	e593      	b.n	2934 <__aeabi_dadd+0x108>
    2e0c:	000c      	movs	r4, r1
    2e0e:	0017      	movs	r7, r2
    2e10:	e590      	b.n	2934 <__aeabi_dadd+0x108>
    2e12:	4656      	mov	r6, sl
    2e14:	0023      	movs	r3, r4
    2e16:	3e20      	subs	r6, #32
    2e18:	40f3      	lsrs	r3, r6
    2e1a:	4699      	mov	r9, r3
    2e1c:	4653      	mov	r3, sl
    2e1e:	2b20      	cmp	r3, #32
    2e20:	d00e      	beq.n	2e40 <__aeabi_dadd+0x614>
    2e22:	2340      	movs	r3, #64	; 0x40
    2e24:	4656      	mov	r6, sl
    2e26:	1b9b      	subs	r3, r3, r6
    2e28:	409c      	lsls	r4, r3
    2e2a:	4327      	orrs	r7, r4
    2e2c:	1e7c      	subs	r4, r7, #1
    2e2e:	41a7      	sbcs	r7, r4
    2e30:	464b      	mov	r3, r9
    2e32:	2400      	movs	r4, #0
    2e34:	431f      	orrs	r7, r3
    2e36:	e75f      	b.n	2cf8 <__aeabi_dadd+0x4cc>
    2e38:	2400      	movs	r4, #0
    2e3a:	e7d2      	b.n	2de2 <__aeabi_dadd+0x5b6>
    2e3c:	0017      	movs	r7, r2
    2e3e:	e5b2      	b.n	29a6 <__aeabi_dadd+0x17a>
    2e40:	2400      	movs	r4, #0
    2e42:	e7f2      	b.n	2e2a <__aeabi_dadd+0x5fe>
    2e44:	000007ff 	.word	0x000007ff
    2e48:	ff7fffff 	.word	0xff7fffff

00002e4c <__aeabi_ddiv>:
    2e4c:	b5f0      	push	{r4, r5, r6, r7, lr}
    2e4e:	4657      	mov	r7, sl
    2e50:	4645      	mov	r5, r8
    2e52:	46de      	mov	lr, fp
    2e54:	464e      	mov	r6, r9
    2e56:	b5e0      	push	{r5, r6, r7, lr}
    2e58:	004c      	lsls	r4, r1, #1
    2e5a:	030e      	lsls	r6, r1, #12
    2e5c:	b087      	sub	sp, #28
    2e5e:	4683      	mov	fp, r0
    2e60:	4692      	mov	sl, r2
    2e62:	001d      	movs	r5, r3
    2e64:	4680      	mov	r8, r0
    2e66:	0b36      	lsrs	r6, r6, #12
    2e68:	0d64      	lsrs	r4, r4, #21
    2e6a:	0fcf      	lsrs	r7, r1, #31
    2e6c:	2c00      	cmp	r4, #0
    2e6e:	d04f      	beq.n	2f10 <__aeabi_ddiv+0xc4>
    2e70:	4b6f      	ldr	r3, [pc, #444]	; (3030 <__aeabi_ddiv+0x1e4>)
    2e72:	429c      	cmp	r4, r3
    2e74:	d035      	beq.n	2ee2 <__aeabi_ddiv+0x96>
    2e76:	2380      	movs	r3, #128	; 0x80
    2e78:	0f42      	lsrs	r2, r0, #29
    2e7a:	041b      	lsls	r3, r3, #16
    2e7c:	00f6      	lsls	r6, r6, #3
    2e7e:	4313      	orrs	r3, r2
    2e80:	4333      	orrs	r3, r6
    2e82:	4699      	mov	r9, r3
    2e84:	00c3      	lsls	r3, r0, #3
    2e86:	4698      	mov	r8, r3
    2e88:	4b6a      	ldr	r3, [pc, #424]	; (3034 <__aeabi_ddiv+0x1e8>)
    2e8a:	2600      	movs	r6, #0
    2e8c:	469c      	mov	ip, r3
    2e8e:	2300      	movs	r3, #0
    2e90:	4464      	add	r4, ip
    2e92:	9303      	str	r3, [sp, #12]
    2e94:	032b      	lsls	r3, r5, #12
    2e96:	0b1b      	lsrs	r3, r3, #12
    2e98:	469b      	mov	fp, r3
    2e9a:	006b      	lsls	r3, r5, #1
    2e9c:	0fed      	lsrs	r5, r5, #31
    2e9e:	4650      	mov	r0, sl
    2ea0:	0d5b      	lsrs	r3, r3, #21
    2ea2:	9501      	str	r5, [sp, #4]
    2ea4:	d05e      	beq.n	2f64 <__aeabi_ddiv+0x118>
    2ea6:	4a62      	ldr	r2, [pc, #392]	; (3030 <__aeabi_ddiv+0x1e4>)
    2ea8:	4293      	cmp	r3, r2
    2eaa:	d053      	beq.n	2f54 <__aeabi_ddiv+0x108>
    2eac:	465a      	mov	r2, fp
    2eae:	00d1      	lsls	r1, r2, #3
    2eb0:	2280      	movs	r2, #128	; 0x80
    2eb2:	0f40      	lsrs	r0, r0, #29
    2eb4:	0412      	lsls	r2, r2, #16
    2eb6:	4302      	orrs	r2, r0
    2eb8:	430a      	orrs	r2, r1
    2eba:	4693      	mov	fp, r2
    2ebc:	4652      	mov	r2, sl
    2ebe:	00d1      	lsls	r1, r2, #3
    2ec0:	4a5c      	ldr	r2, [pc, #368]	; (3034 <__aeabi_ddiv+0x1e8>)
    2ec2:	4694      	mov	ip, r2
    2ec4:	2200      	movs	r2, #0
    2ec6:	4463      	add	r3, ip
    2ec8:	0038      	movs	r0, r7
    2eca:	4068      	eors	r0, r5
    2ecc:	4684      	mov	ip, r0
    2ece:	9002      	str	r0, [sp, #8]
    2ed0:	1ae4      	subs	r4, r4, r3
    2ed2:	4316      	orrs	r6, r2
    2ed4:	2e0f      	cmp	r6, #15
    2ed6:	d900      	bls.n	2eda <__aeabi_ddiv+0x8e>
    2ed8:	e0b4      	b.n	3044 <__aeabi_ddiv+0x1f8>
    2eda:	4b57      	ldr	r3, [pc, #348]	; (3038 <__aeabi_ddiv+0x1ec>)
    2edc:	00b6      	lsls	r6, r6, #2
    2ede:	599b      	ldr	r3, [r3, r6]
    2ee0:	469f      	mov	pc, r3
    2ee2:	0003      	movs	r3, r0
    2ee4:	4333      	orrs	r3, r6
    2ee6:	4699      	mov	r9, r3
    2ee8:	d16c      	bne.n	2fc4 <__aeabi_ddiv+0x178>
    2eea:	2300      	movs	r3, #0
    2eec:	4698      	mov	r8, r3
    2eee:	3302      	adds	r3, #2
    2ef0:	2608      	movs	r6, #8
    2ef2:	9303      	str	r3, [sp, #12]
    2ef4:	e7ce      	b.n	2e94 <__aeabi_ddiv+0x48>
    2ef6:	46cb      	mov	fp, r9
    2ef8:	4641      	mov	r1, r8
    2efa:	9a03      	ldr	r2, [sp, #12]
    2efc:	9701      	str	r7, [sp, #4]
    2efe:	2a02      	cmp	r2, #2
    2f00:	d165      	bne.n	2fce <__aeabi_ddiv+0x182>
    2f02:	9b01      	ldr	r3, [sp, #4]
    2f04:	4c4a      	ldr	r4, [pc, #296]	; (3030 <__aeabi_ddiv+0x1e4>)
    2f06:	469c      	mov	ip, r3
    2f08:	2300      	movs	r3, #0
    2f0a:	2200      	movs	r2, #0
    2f0c:	4698      	mov	r8, r3
    2f0e:	e06b      	b.n	2fe8 <__aeabi_ddiv+0x19c>
    2f10:	0003      	movs	r3, r0
    2f12:	4333      	orrs	r3, r6
    2f14:	4699      	mov	r9, r3
    2f16:	d04e      	beq.n	2fb6 <__aeabi_ddiv+0x16a>
    2f18:	2e00      	cmp	r6, #0
    2f1a:	d100      	bne.n	2f1e <__aeabi_ddiv+0xd2>
    2f1c:	e1bc      	b.n	3298 <__aeabi_ddiv+0x44c>
    2f1e:	0030      	movs	r0, r6
    2f20:	f001 f8ca 	bl	40b8 <__clzsi2>
    2f24:	0003      	movs	r3, r0
    2f26:	3b0b      	subs	r3, #11
    2f28:	2b1c      	cmp	r3, #28
    2f2a:	dd00      	ble.n	2f2e <__aeabi_ddiv+0xe2>
    2f2c:	e1ac      	b.n	3288 <__aeabi_ddiv+0x43c>
    2f2e:	221d      	movs	r2, #29
    2f30:	1ad3      	subs	r3, r2, r3
    2f32:	465a      	mov	r2, fp
    2f34:	0001      	movs	r1, r0
    2f36:	40da      	lsrs	r2, r3
    2f38:	3908      	subs	r1, #8
    2f3a:	408e      	lsls	r6, r1
    2f3c:	0013      	movs	r3, r2
    2f3e:	4333      	orrs	r3, r6
    2f40:	4699      	mov	r9, r3
    2f42:	465b      	mov	r3, fp
    2f44:	408b      	lsls	r3, r1
    2f46:	4698      	mov	r8, r3
    2f48:	2300      	movs	r3, #0
    2f4a:	4c3c      	ldr	r4, [pc, #240]	; (303c <__aeabi_ddiv+0x1f0>)
    2f4c:	2600      	movs	r6, #0
    2f4e:	1a24      	subs	r4, r4, r0
    2f50:	9303      	str	r3, [sp, #12]
    2f52:	e79f      	b.n	2e94 <__aeabi_ddiv+0x48>
    2f54:	4651      	mov	r1, sl
    2f56:	465a      	mov	r2, fp
    2f58:	4311      	orrs	r1, r2
    2f5a:	d129      	bne.n	2fb0 <__aeabi_ddiv+0x164>
    2f5c:	2200      	movs	r2, #0
    2f5e:	4693      	mov	fp, r2
    2f60:	3202      	adds	r2, #2
    2f62:	e7b1      	b.n	2ec8 <__aeabi_ddiv+0x7c>
    2f64:	4659      	mov	r1, fp
    2f66:	4301      	orrs	r1, r0
    2f68:	d01e      	beq.n	2fa8 <__aeabi_ddiv+0x15c>
    2f6a:	465b      	mov	r3, fp
    2f6c:	2b00      	cmp	r3, #0
    2f6e:	d100      	bne.n	2f72 <__aeabi_ddiv+0x126>
    2f70:	e19e      	b.n	32b0 <__aeabi_ddiv+0x464>
    2f72:	4658      	mov	r0, fp
    2f74:	f001 f8a0 	bl	40b8 <__clzsi2>
    2f78:	0003      	movs	r3, r0
    2f7a:	3b0b      	subs	r3, #11
    2f7c:	2b1c      	cmp	r3, #28
    2f7e:	dd00      	ble.n	2f82 <__aeabi_ddiv+0x136>
    2f80:	e18f      	b.n	32a2 <__aeabi_ddiv+0x456>
    2f82:	0002      	movs	r2, r0
    2f84:	4659      	mov	r1, fp
    2f86:	3a08      	subs	r2, #8
    2f88:	4091      	lsls	r1, r2
    2f8a:	468b      	mov	fp, r1
    2f8c:	211d      	movs	r1, #29
    2f8e:	1acb      	subs	r3, r1, r3
    2f90:	4651      	mov	r1, sl
    2f92:	40d9      	lsrs	r1, r3
    2f94:	000b      	movs	r3, r1
    2f96:	4659      	mov	r1, fp
    2f98:	430b      	orrs	r3, r1
    2f9a:	4651      	mov	r1, sl
    2f9c:	469b      	mov	fp, r3
    2f9e:	4091      	lsls	r1, r2
    2fa0:	4b26      	ldr	r3, [pc, #152]	; (303c <__aeabi_ddiv+0x1f0>)
    2fa2:	2200      	movs	r2, #0
    2fa4:	1a1b      	subs	r3, r3, r0
    2fa6:	e78f      	b.n	2ec8 <__aeabi_ddiv+0x7c>
    2fa8:	2300      	movs	r3, #0
    2faa:	2201      	movs	r2, #1
    2fac:	469b      	mov	fp, r3
    2fae:	e78b      	b.n	2ec8 <__aeabi_ddiv+0x7c>
    2fb0:	4651      	mov	r1, sl
    2fb2:	2203      	movs	r2, #3
    2fb4:	e788      	b.n	2ec8 <__aeabi_ddiv+0x7c>
    2fb6:	2300      	movs	r3, #0
    2fb8:	4698      	mov	r8, r3
    2fba:	3301      	adds	r3, #1
    2fbc:	2604      	movs	r6, #4
    2fbe:	2400      	movs	r4, #0
    2fc0:	9303      	str	r3, [sp, #12]
    2fc2:	e767      	b.n	2e94 <__aeabi_ddiv+0x48>
    2fc4:	2303      	movs	r3, #3
    2fc6:	46b1      	mov	r9, r6
    2fc8:	9303      	str	r3, [sp, #12]
    2fca:	260c      	movs	r6, #12
    2fcc:	e762      	b.n	2e94 <__aeabi_ddiv+0x48>
    2fce:	2a03      	cmp	r2, #3
    2fd0:	d100      	bne.n	2fd4 <__aeabi_ddiv+0x188>
    2fd2:	e25c      	b.n	348e <__aeabi_ddiv+0x642>
    2fd4:	9b01      	ldr	r3, [sp, #4]
    2fd6:	2a01      	cmp	r2, #1
    2fd8:	d000      	beq.n	2fdc <__aeabi_ddiv+0x190>
    2fda:	e1e4      	b.n	33a6 <__aeabi_ddiv+0x55a>
    2fdc:	4013      	ands	r3, r2
    2fde:	469c      	mov	ip, r3
    2fe0:	2300      	movs	r3, #0
    2fe2:	2400      	movs	r4, #0
    2fe4:	2200      	movs	r2, #0
    2fe6:	4698      	mov	r8, r3
    2fe8:	2100      	movs	r1, #0
    2fea:	0312      	lsls	r2, r2, #12
    2fec:	0b13      	lsrs	r3, r2, #12
    2fee:	0d0a      	lsrs	r2, r1, #20
    2ff0:	0512      	lsls	r2, r2, #20
    2ff2:	431a      	orrs	r2, r3
    2ff4:	0523      	lsls	r3, r4, #20
    2ff6:	4c12      	ldr	r4, [pc, #72]	; (3040 <__aeabi_ddiv+0x1f4>)
    2ff8:	4640      	mov	r0, r8
    2ffa:	4022      	ands	r2, r4
    2ffc:	4313      	orrs	r3, r2
    2ffe:	4662      	mov	r2, ip
    3000:	005b      	lsls	r3, r3, #1
    3002:	07d2      	lsls	r2, r2, #31
    3004:	085b      	lsrs	r3, r3, #1
    3006:	4313      	orrs	r3, r2
    3008:	0019      	movs	r1, r3
    300a:	b007      	add	sp, #28
    300c:	bc3c      	pop	{r2, r3, r4, r5}
    300e:	4690      	mov	r8, r2
    3010:	4699      	mov	r9, r3
    3012:	46a2      	mov	sl, r4
    3014:	46ab      	mov	fp, r5
    3016:	bdf0      	pop	{r4, r5, r6, r7, pc}
    3018:	2300      	movs	r3, #0
    301a:	2280      	movs	r2, #128	; 0x80
    301c:	469c      	mov	ip, r3
    301e:	0312      	lsls	r2, r2, #12
    3020:	4698      	mov	r8, r3
    3022:	4c03      	ldr	r4, [pc, #12]	; (3030 <__aeabi_ddiv+0x1e4>)
    3024:	e7e0      	b.n	2fe8 <__aeabi_ddiv+0x19c>
    3026:	2300      	movs	r3, #0
    3028:	4c01      	ldr	r4, [pc, #4]	; (3030 <__aeabi_ddiv+0x1e4>)
    302a:	2200      	movs	r2, #0
    302c:	4698      	mov	r8, r3
    302e:	e7db      	b.n	2fe8 <__aeabi_ddiv+0x19c>
    3030:	000007ff 	.word	0x000007ff
    3034:	fffffc01 	.word	0xfffffc01
    3038:	00004200 	.word	0x00004200
    303c:	fffffc0d 	.word	0xfffffc0d
    3040:	800fffff 	.word	0x800fffff
    3044:	45d9      	cmp	r9, fp
    3046:	d900      	bls.n	304a <__aeabi_ddiv+0x1fe>
    3048:	e139      	b.n	32be <__aeabi_ddiv+0x472>
    304a:	d100      	bne.n	304e <__aeabi_ddiv+0x202>
    304c:	e134      	b.n	32b8 <__aeabi_ddiv+0x46c>
    304e:	2300      	movs	r3, #0
    3050:	4646      	mov	r6, r8
    3052:	464d      	mov	r5, r9
    3054:	469a      	mov	sl, r3
    3056:	3c01      	subs	r4, #1
    3058:	465b      	mov	r3, fp
    305a:	0e0a      	lsrs	r2, r1, #24
    305c:	021b      	lsls	r3, r3, #8
    305e:	431a      	orrs	r2, r3
    3060:	020b      	lsls	r3, r1, #8
    3062:	0c17      	lsrs	r7, r2, #16
    3064:	9303      	str	r3, [sp, #12]
    3066:	0413      	lsls	r3, r2, #16
    3068:	0c1b      	lsrs	r3, r3, #16
    306a:	0039      	movs	r1, r7
    306c:	0028      	movs	r0, r5
    306e:	4690      	mov	r8, r2
    3070:	9301      	str	r3, [sp, #4]
    3072:	f7ff fb4f 	bl	2714 <__udivsi3>
    3076:	0002      	movs	r2, r0
    3078:	9b01      	ldr	r3, [sp, #4]
    307a:	4683      	mov	fp, r0
    307c:	435a      	muls	r2, r3
    307e:	0028      	movs	r0, r5
    3080:	0039      	movs	r1, r7
    3082:	4691      	mov	r9, r2
    3084:	f7ff fbcc 	bl	2820 <__aeabi_uidivmod>
    3088:	0c35      	lsrs	r5, r6, #16
    308a:	0409      	lsls	r1, r1, #16
    308c:	430d      	orrs	r5, r1
    308e:	45a9      	cmp	r9, r5
    3090:	d90d      	bls.n	30ae <__aeabi_ddiv+0x262>
    3092:	465b      	mov	r3, fp
    3094:	4445      	add	r5, r8
    3096:	3b01      	subs	r3, #1
    3098:	45a8      	cmp	r8, r5
    309a:	d900      	bls.n	309e <__aeabi_ddiv+0x252>
    309c:	e13a      	b.n	3314 <__aeabi_ddiv+0x4c8>
    309e:	45a9      	cmp	r9, r5
    30a0:	d800      	bhi.n	30a4 <__aeabi_ddiv+0x258>
    30a2:	e137      	b.n	3314 <__aeabi_ddiv+0x4c8>
    30a4:	2302      	movs	r3, #2
    30a6:	425b      	negs	r3, r3
    30a8:	469c      	mov	ip, r3
    30aa:	4445      	add	r5, r8
    30ac:	44e3      	add	fp, ip
    30ae:	464b      	mov	r3, r9
    30b0:	1aeb      	subs	r3, r5, r3
    30b2:	0039      	movs	r1, r7
    30b4:	0018      	movs	r0, r3
    30b6:	9304      	str	r3, [sp, #16]
    30b8:	f7ff fb2c 	bl	2714 <__udivsi3>
    30bc:	9b01      	ldr	r3, [sp, #4]
    30be:	0005      	movs	r5, r0
    30c0:	4343      	muls	r3, r0
    30c2:	0039      	movs	r1, r7
    30c4:	9804      	ldr	r0, [sp, #16]
    30c6:	4699      	mov	r9, r3
    30c8:	f7ff fbaa 	bl	2820 <__aeabi_uidivmod>
    30cc:	0433      	lsls	r3, r6, #16
    30ce:	0409      	lsls	r1, r1, #16
    30d0:	0c1b      	lsrs	r3, r3, #16
    30d2:	430b      	orrs	r3, r1
    30d4:	4599      	cmp	r9, r3
    30d6:	d909      	bls.n	30ec <__aeabi_ddiv+0x2a0>
    30d8:	4443      	add	r3, r8
    30da:	1e6a      	subs	r2, r5, #1
    30dc:	4598      	cmp	r8, r3
    30de:	d900      	bls.n	30e2 <__aeabi_ddiv+0x296>
    30e0:	e11a      	b.n	3318 <__aeabi_ddiv+0x4cc>
    30e2:	4599      	cmp	r9, r3
    30e4:	d800      	bhi.n	30e8 <__aeabi_ddiv+0x29c>
    30e6:	e117      	b.n	3318 <__aeabi_ddiv+0x4cc>
    30e8:	3d02      	subs	r5, #2
    30ea:	4443      	add	r3, r8
    30ec:	464a      	mov	r2, r9
    30ee:	1a9b      	subs	r3, r3, r2
    30f0:	465a      	mov	r2, fp
    30f2:	0412      	lsls	r2, r2, #16
    30f4:	432a      	orrs	r2, r5
    30f6:	9903      	ldr	r1, [sp, #12]
    30f8:	4693      	mov	fp, r2
    30fa:	0c10      	lsrs	r0, r2, #16
    30fc:	0c0a      	lsrs	r2, r1, #16
    30fe:	4691      	mov	r9, r2
    3100:	0409      	lsls	r1, r1, #16
    3102:	465a      	mov	r2, fp
    3104:	0c09      	lsrs	r1, r1, #16
    3106:	464e      	mov	r6, r9
    3108:	000d      	movs	r5, r1
    310a:	0412      	lsls	r2, r2, #16
    310c:	0c12      	lsrs	r2, r2, #16
    310e:	4345      	muls	r5, r0
    3110:	9105      	str	r1, [sp, #20]
    3112:	4351      	muls	r1, r2
    3114:	4372      	muls	r2, r6
    3116:	4370      	muls	r0, r6
    3118:	1952      	adds	r2, r2, r5
    311a:	0c0e      	lsrs	r6, r1, #16
    311c:	18b2      	adds	r2, r6, r2
    311e:	4295      	cmp	r5, r2
    3120:	d903      	bls.n	312a <__aeabi_ddiv+0x2de>
    3122:	2580      	movs	r5, #128	; 0x80
    3124:	026d      	lsls	r5, r5, #9
    3126:	46ac      	mov	ip, r5
    3128:	4460      	add	r0, ip
    312a:	0c15      	lsrs	r5, r2, #16
    312c:	0409      	lsls	r1, r1, #16
    312e:	0412      	lsls	r2, r2, #16
    3130:	0c09      	lsrs	r1, r1, #16
    3132:	1828      	adds	r0, r5, r0
    3134:	1852      	adds	r2, r2, r1
    3136:	4283      	cmp	r3, r0
    3138:	d200      	bcs.n	313c <__aeabi_ddiv+0x2f0>
    313a:	e0ce      	b.n	32da <__aeabi_ddiv+0x48e>
    313c:	d100      	bne.n	3140 <__aeabi_ddiv+0x2f4>
    313e:	e0c8      	b.n	32d2 <__aeabi_ddiv+0x486>
    3140:	1a1d      	subs	r5, r3, r0
    3142:	4653      	mov	r3, sl
    3144:	1a9e      	subs	r6, r3, r2
    3146:	45b2      	cmp	sl, r6
    3148:	4192      	sbcs	r2, r2
    314a:	4252      	negs	r2, r2
    314c:	1aab      	subs	r3, r5, r2
    314e:	469a      	mov	sl, r3
    3150:	4598      	cmp	r8, r3
    3152:	d100      	bne.n	3156 <__aeabi_ddiv+0x30a>
    3154:	e117      	b.n	3386 <__aeabi_ddiv+0x53a>
    3156:	0039      	movs	r1, r7
    3158:	0018      	movs	r0, r3
    315a:	f7ff fadb 	bl	2714 <__udivsi3>
    315e:	9b01      	ldr	r3, [sp, #4]
    3160:	0005      	movs	r5, r0
    3162:	4343      	muls	r3, r0
    3164:	0039      	movs	r1, r7
    3166:	4650      	mov	r0, sl
    3168:	9304      	str	r3, [sp, #16]
    316a:	f7ff fb59 	bl	2820 <__aeabi_uidivmod>
    316e:	9804      	ldr	r0, [sp, #16]
    3170:	040b      	lsls	r3, r1, #16
    3172:	0c31      	lsrs	r1, r6, #16
    3174:	4319      	orrs	r1, r3
    3176:	4288      	cmp	r0, r1
    3178:	d909      	bls.n	318e <__aeabi_ddiv+0x342>
    317a:	4441      	add	r1, r8
    317c:	1e6b      	subs	r3, r5, #1
    317e:	4588      	cmp	r8, r1
    3180:	d900      	bls.n	3184 <__aeabi_ddiv+0x338>
    3182:	e107      	b.n	3394 <__aeabi_ddiv+0x548>
    3184:	4288      	cmp	r0, r1
    3186:	d800      	bhi.n	318a <__aeabi_ddiv+0x33e>
    3188:	e104      	b.n	3394 <__aeabi_ddiv+0x548>
    318a:	3d02      	subs	r5, #2
    318c:	4441      	add	r1, r8
    318e:	9b04      	ldr	r3, [sp, #16]
    3190:	1acb      	subs	r3, r1, r3
    3192:	0018      	movs	r0, r3
    3194:	0039      	movs	r1, r7
    3196:	9304      	str	r3, [sp, #16]
    3198:	f7ff fabc 	bl	2714 <__udivsi3>
    319c:	9b01      	ldr	r3, [sp, #4]
    319e:	4682      	mov	sl, r0
    31a0:	4343      	muls	r3, r0
    31a2:	0039      	movs	r1, r7
    31a4:	9804      	ldr	r0, [sp, #16]
    31a6:	9301      	str	r3, [sp, #4]
    31a8:	f7ff fb3a 	bl	2820 <__aeabi_uidivmod>
    31ac:	9801      	ldr	r0, [sp, #4]
    31ae:	040b      	lsls	r3, r1, #16
    31b0:	0431      	lsls	r1, r6, #16
    31b2:	0c09      	lsrs	r1, r1, #16
    31b4:	4319      	orrs	r1, r3
    31b6:	4288      	cmp	r0, r1
    31b8:	d90d      	bls.n	31d6 <__aeabi_ddiv+0x38a>
    31ba:	4653      	mov	r3, sl
    31bc:	4441      	add	r1, r8
    31be:	3b01      	subs	r3, #1
    31c0:	4588      	cmp	r8, r1
    31c2:	d900      	bls.n	31c6 <__aeabi_ddiv+0x37a>
    31c4:	e0e8      	b.n	3398 <__aeabi_ddiv+0x54c>
    31c6:	4288      	cmp	r0, r1
    31c8:	d800      	bhi.n	31cc <__aeabi_ddiv+0x380>
    31ca:	e0e5      	b.n	3398 <__aeabi_ddiv+0x54c>
    31cc:	2302      	movs	r3, #2
    31ce:	425b      	negs	r3, r3
    31d0:	469c      	mov	ip, r3
    31d2:	4441      	add	r1, r8
    31d4:	44e2      	add	sl, ip
    31d6:	9b01      	ldr	r3, [sp, #4]
    31d8:	042d      	lsls	r5, r5, #16
    31da:	1ace      	subs	r6, r1, r3
    31dc:	4651      	mov	r1, sl
    31de:	4329      	orrs	r1, r5
    31e0:	9d05      	ldr	r5, [sp, #20]
    31e2:	464f      	mov	r7, r9
    31e4:	002a      	movs	r2, r5
    31e6:	040b      	lsls	r3, r1, #16
    31e8:	0c08      	lsrs	r0, r1, #16
    31ea:	0c1b      	lsrs	r3, r3, #16
    31ec:	435a      	muls	r2, r3
    31ee:	4345      	muls	r5, r0
    31f0:	437b      	muls	r3, r7
    31f2:	4378      	muls	r0, r7
    31f4:	195b      	adds	r3, r3, r5
    31f6:	0c17      	lsrs	r7, r2, #16
    31f8:	18fb      	adds	r3, r7, r3
    31fa:	429d      	cmp	r5, r3
    31fc:	d903      	bls.n	3206 <__aeabi_ddiv+0x3ba>
    31fe:	2580      	movs	r5, #128	; 0x80
    3200:	026d      	lsls	r5, r5, #9
    3202:	46ac      	mov	ip, r5
    3204:	4460      	add	r0, ip
    3206:	0c1d      	lsrs	r5, r3, #16
    3208:	0412      	lsls	r2, r2, #16
    320a:	041b      	lsls	r3, r3, #16
    320c:	0c12      	lsrs	r2, r2, #16
    320e:	1828      	adds	r0, r5, r0
    3210:	189b      	adds	r3, r3, r2
    3212:	4286      	cmp	r6, r0
    3214:	d200      	bcs.n	3218 <__aeabi_ddiv+0x3cc>
    3216:	e093      	b.n	3340 <__aeabi_ddiv+0x4f4>
    3218:	d100      	bne.n	321c <__aeabi_ddiv+0x3d0>
    321a:	e08e      	b.n	333a <__aeabi_ddiv+0x4ee>
    321c:	2301      	movs	r3, #1
    321e:	4319      	orrs	r1, r3
    3220:	4ba0      	ldr	r3, [pc, #640]	; (34a4 <__aeabi_ddiv+0x658>)
    3222:	18e3      	adds	r3, r4, r3
    3224:	2b00      	cmp	r3, #0
    3226:	dc00      	bgt.n	322a <__aeabi_ddiv+0x3de>
    3228:	e099      	b.n	335e <__aeabi_ddiv+0x512>
    322a:	074a      	lsls	r2, r1, #29
    322c:	d000      	beq.n	3230 <__aeabi_ddiv+0x3e4>
    322e:	e09e      	b.n	336e <__aeabi_ddiv+0x522>
    3230:	465a      	mov	r2, fp
    3232:	01d2      	lsls	r2, r2, #7
    3234:	d506      	bpl.n	3244 <__aeabi_ddiv+0x3f8>
    3236:	465a      	mov	r2, fp
    3238:	4b9b      	ldr	r3, [pc, #620]	; (34a8 <__aeabi_ddiv+0x65c>)
    323a:	401a      	ands	r2, r3
    323c:	2380      	movs	r3, #128	; 0x80
    323e:	4693      	mov	fp, r2
    3240:	00db      	lsls	r3, r3, #3
    3242:	18e3      	adds	r3, r4, r3
    3244:	4a99      	ldr	r2, [pc, #612]	; (34ac <__aeabi_ddiv+0x660>)
    3246:	4293      	cmp	r3, r2
    3248:	dd68      	ble.n	331c <__aeabi_ddiv+0x4d0>
    324a:	2301      	movs	r3, #1
    324c:	9a02      	ldr	r2, [sp, #8]
    324e:	4c98      	ldr	r4, [pc, #608]	; (34b0 <__aeabi_ddiv+0x664>)
    3250:	401a      	ands	r2, r3
    3252:	2300      	movs	r3, #0
    3254:	4694      	mov	ip, r2
    3256:	4698      	mov	r8, r3
    3258:	2200      	movs	r2, #0
    325a:	e6c5      	b.n	2fe8 <__aeabi_ddiv+0x19c>
    325c:	2280      	movs	r2, #128	; 0x80
    325e:	464b      	mov	r3, r9
    3260:	0312      	lsls	r2, r2, #12
    3262:	4213      	tst	r3, r2
    3264:	d00a      	beq.n	327c <__aeabi_ddiv+0x430>
    3266:	465b      	mov	r3, fp
    3268:	4213      	tst	r3, r2
    326a:	d106      	bne.n	327a <__aeabi_ddiv+0x42e>
    326c:	431a      	orrs	r2, r3
    326e:	0312      	lsls	r2, r2, #12
    3270:	0b12      	lsrs	r2, r2, #12
    3272:	46ac      	mov	ip, r5
    3274:	4688      	mov	r8, r1
    3276:	4c8e      	ldr	r4, [pc, #568]	; (34b0 <__aeabi_ddiv+0x664>)
    3278:	e6b6      	b.n	2fe8 <__aeabi_ddiv+0x19c>
    327a:	464b      	mov	r3, r9
    327c:	431a      	orrs	r2, r3
    327e:	0312      	lsls	r2, r2, #12
    3280:	0b12      	lsrs	r2, r2, #12
    3282:	46bc      	mov	ip, r7
    3284:	4c8a      	ldr	r4, [pc, #552]	; (34b0 <__aeabi_ddiv+0x664>)
    3286:	e6af      	b.n	2fe8 <__aeabi_ddiv+0x19c>
    3288:	0003      	movs	r3, r0
    328a:	465a      	mov	r2, fp
    328c:	3b28      	subs	r3, #40	; 0x28
    328e:	409a      	lsls	r2, r3
    3290:	2300      	movs	r3, #0
    3292:	4691      	mov	r9, r2
    3294:	4698      	mov	r8, r3
    3296:	e657      	b.n	2f48 <__aeabi_ddiv+0xfc>
    3298:	4658      	mov	r0, fp
    329a:	f000 ff0d 	bl	40b8 <__clzsi2>
    329e:	3020      	adds	r0, #32
    32a0:	e640      	b.n	2f24 <__aeabi_ddiv+0xd8>
    32a2:	0003      	movs	r3, r0
    32a4:	4652      	mov	r2, sl
    32a6:	3b28      	subs	r3, #40	; 0x28
    32a8:	409a      	lsls	r2, r3
    32aa:	2100      	movs	r1, #0
    32ac:	4693      	mov	fp, r2
    32ae:	e677      	b.n	2fa0 <__aeabi_ddiv+0x154>
    32b0:	f000 ff02 	bl	40b8 <__clzsi2>
    32b4:	3020      	adds	r0, #32
    32b6:	e65f      	b.n	2f78 <__aeabi_ddiv+0x12c>
    32b8:	4588      	cmp	r8, r1
    32ba:	d200      	bcs.n	32be <__aeabi_ddiv+0x472>
    32bc:	e6c7      	b.n	304e <__aeabi_ddiv+0x202>
    32be:	464b      	mov	r3, r9
    32c0:	07de      	lsls	r6, r3, #31
    32c2:	085d      	lsrs	r5, r3, #1
    32c4:	4643      	mov	r3, r8
    32c6:	085b      	lsrs	r3, r3, #1
    32c8:	431e      	orrs	r6, r3
    32ca:	4643      	mov	r3, r8
    32cc:	07db      	lsls	r3, r3, #31
    32ce:	469a      	mov	sl, r3
    32d0:	e6c2      	b.n	3058 <__aeabi_ddiv+0x20c>
    32d2:	2500      	movs	r5, #0
    32d4:	4592      	cmp	sl, r2
    32d6:	d300      	bcc.n	32da <__aeabi_ddiv+0x48e>
    32d8:	e733      	b.n	3142 <__aeabi_ddiv+0x2f6>
    32da:	9e03      	ldr	r6, [sp, #12]
    32dc:	4659      	mov	r1, fp
    32de:	46b4      	mov	ip, r6
    32e0:	44e2      	add	sl, ip
    32e2:	45b2      	cmp	sl, r6
    32e4:	41ad      	sbcs	r5, r5
    32e6:	426d      	negs	r5, r5
    32e8:	4445      	add	r5, r8
    32ea:	18eb      	adds	r3, r5, r3
    32ec:	3901      	subs	r1, #1
    32ee:	4598      	cmp	r8, r3
    32f0:	d207      	bcs.n	3302 <__aeabi_ddiv+0x4b6>
    32f2:	4298      	cmp	r0, r3
    32f4:	d900      	bls.n	32f8 <__aeabi_ddiv+0x4ac>
    32f6:	e07f      	b.n	33f8 <__aeabi_ddiv+0x5ac>
    32f8:	d100      	bne.n	32fc <__aeabi_ddiv+0x4b0>
    32fa:	e0bc      	b.n	3476 <__aeabi_ddiv+0x62a>
    32fc:	1a1d      	subs	r5, r3, r0
    32fe:	468b      	mov	fp, r1
    3300:	e71f      	b.n	3142 <__aeabi_ddiv+0x2f6>
    3302:	4598      	cmp	r8, r3
    3304:	d1fa      	bne.n	32fc <__aeabi_ddiv+0x4b0>
    3306:	9d03      	ldr	r5, [sp, #12]
    3308:	4555      	cmp	r5, sl
    330a:	d9f2      	bls.n	32f2 <__aeabi_ddiv+0x4a6>
    330c:	4643      	mov	r3, r8
    330e:	468b      	mov	fp, r1
    3310:	1a1d      	subs	r5, r3, r0
    3312:	e716      	b.n	3142 <__aeabi_ddiv+0x2f6>
    3314:	469b      	mov	fp, r3
    3316:	e6ca      	b.n	30ae <__aeabi_ddiv+0x262>
    3318:	0015      	movs	r5, r2
    331a:	e6e7      	b.n	30ec <__aeabi_ddiv+0x2a0>
    331c:	465a      	mov	r2, fp
    331e:	08c9      	lsrs	r1, r1, #3
    3320:	0752      	lsls	r2, r2, #29
    3322:	430a      	orrs	r2, r1
    3324:	055b      	lsls	r3, r3, #21
    3326:	4690      	mov	r8, r2
    3328:	0d5c      	lsrs	r4, r3, #21
    332a:	465a      	mov	r2, fp
    332c:	2301      	movs	r3, #1
    332e:	9902      	ldr	r1, [sp, #8]
    3330:	0252      	lsls	r2, r2, #9
    3332:	4019      	ands	r1, r3
    3334:	0b12      	lsrs	r2, r2, #12
    3336:	468c      	mov	ip, r1
    3338:	e656      	b.n	2fe8 <__aeabi_ddiv+0x19c>
    333a:	2b00      	cmp	r3, #0
    333c:	d100      	bne.n	3340 <__aeabi_ddiv+0x4f4>
    333e:	e76f      	b.n	3220 <__aeabi_ddiv+0x3d4>
    3340:	4446      	add	r6, r8
    3342:	1e4a      	subs	r2, r1, #1
    3344:	45b0      	cmp	r8, r6
    3346:	d929      	bls.n	339c <__aeabi_ddiv+0x550>
    3348:	0011      	movs	r1, r2
    334a:	4286      	cmp	r6, r0
    334c:	d000      	beq.n	3350 <__aeabi_ddiv+0x504>
    334e:	e765      	b.n	321c <__aeabi_ddiv+0x3d0>
    3350:	9a03      	ldr	r2, [sp, #12]
    3352:	4293      	cmp	r3, r2
    3354:	d000      	beq.n	3358 <__aeabi_ddiv+0x50c>
    3356:	e761      	b.n	321c <__aeabi_ddiv+0x3d0>
    3358:	e762      	b.n	3220 <__aeabi_ddiv+0x3d4>
    335a:	2101      	movs	r1, #1
    335c:	4249      	negs	r1, r1
    335e:	2001      	movs	r0, #1
    3360:	1ac2      	subs	r2, r0, r3
    3362:	2a38      	cmp	r2, #56	; 0x38
    3364:	dd21      	ble.n	33aa <__aeabi_ddiv+0x55e>
    3366:	9b02      	ldr	r3, [sp, #8]
    3368:	4003      	ands	r3, r0
    336a:	469c      	mov	ip, r3
    336c:	e638      	b.n	2fe0 <__aeabi_ddiv+0x194>
    336e:	220f      	movs	r2, #15
    3370:	400a      	ands	r2, r1
    3372:	2a04      	cmp	r2, #4
    3374:	d100      	bne.n	3378 <__aeabi_ddiv+0x52c>
    3376:	e75b      	b.n	3230 <__aeabi_ddiv+0x3e4>
    3378:	000a      	movs	r2, r1
    337a:	1d11      	adds	r1, r2, #4
    337c:	4291      	cmp	r1, r2
    337e:	4192      	sbcs	r2, r2
    3380:	4252      	negs	r2, r2
    3382:	4493      	add	fp, r2
    3384:	e754      	b.n	3230 <__aeabi_ddiv+0x3e4>
    3386:	4b47      	ldr	r3, [pc, #284]	; (34a4 <__aeabi_ddiv+0x658>)
    3388:	18e3      	adds	r3, r4, r3
    338a:	2b00      	cmp	r3, #0
    338c:	dde5      	ble.n	335a <__aeabi_ddiv+0x50e>
    338e:	2201      	movs	r2, #1
    3390:	4252      	negs	r2, r2
    3392:	e7f2      	b.n	337a <__aeabi_ddiv+0x52e>
    3394:	001d      	movs	r5, r3
    3396:	e6fa      	b.n	318e <__aeabi_ddiv+0x342>
    3398:	469a      	mov	sl, r3
    339a:	e71c      	b.n	31d6 <__aeabi_ddiv+0x38a>
    339c:	42b0      	cmp	r0, r6
    339e:	d839      	bhi.n	3414 <__aeabi_ddiv+0x5c8>
    33a0:	d06e      	beq.n	3480 <__aeabi_ddiv+0x634>
    33a2:	0011      	movs	r1, r2
    33a4:	e73a      	b.n	321c <__aeabi_ddiv+0x3d0>
    33a6:	9302      	str	r3, [sp, #8]
    33a8:	e73a      	b.n	3220 <__aeabi_ddiv+0x3d4>
    33aa:	2a1f      	cmp	r2, #31
    33ac:	dc3c      	bgt.n	3428 <__aeabi_ddiv+0x5dc>
    33ae:	2320      	movs	r3, #32
    33b0:	1a9b      	subs	r3, r3, r2
    33b2:	000c      	movs	r4, r1
    33b4:	4658      	mov	r0, fp
    33b6:	4099      	lsls	r1, r3
    33b8:	4098      	lsls	r0, r3
    33ba:	1e4b      	subs	r3, r1, #1
    33bc:	4199      	sbcs	r1, r3
    33be:	465b      	mov	r3, fp
    33c0:	40d4      	lsrs	r4, r2
    33c2:	40d3      	lsrs	r3, r2
    33c4:	4320      	orrs	r0, r4
    33c6:	4308      	orrs	r0, r1
    33c8:	001a      	movs	r2, r3
    33ca:	0743      	lsls	r3, r0, #29
    33cc:	d009      	beq.n	33e2 <__aeabi_ddiv+0x596>
    33ce:	230f      	movs	r3, #15
    33d0:	4003      	ands	r3, r0
    33d2:	2b04      	cmp	r3, #4
    33d4:	d005      	beq.n	33e2 <__aeabi_ddiv+0x596>
    33d6:	0001      	movs	r1, r0
    33d8:	1d08      	adds	r0, r1, #4
    33da:	4288      	cmp	r0, r1
    33dc:	419b      	sbcs	r3, r3
    33de:	425b      	negs	r3, r3
    33e0:	18d2      	adds	r2, r2, r3
    33e2:	0213      	lsls	r3, r2, #8
    33e4:	d53a      	bpl.n	345c <__aeabi_ddiv+0x610>
    33e6:	2301      	movs	r3, #1
    33e8:	9a02      	ldr	r2, [sp, #8]
    33ea:	2401      	movs	r4, #1
    33ec:	401a      	ands	r2, r3
    33ee:	2300      	movs	r3, #0
    33f0:	4694      	mov	ip, r2
    33f2:	4698      	mov	r8, r3
    33f4:	2200      	movs	r2, #0
    33f6:	e5f7      	b.n	2fe8 <__aeabi_ddiv+0x19c>
    33f8:	2102      	movs	r1, #2
    33fa:	4249      	negs	r1, r1
    33fc:	468c      	mov	ip, r1
    33fe:	9d03      	ldr	r5, [sp, #12]
    3400:	44e3      	add	fp, ip
    3402:	46ac      	mov	ip, r5
    3404:	44e2      	add	sl, ip
    3406:	45aa      	cmp	sl, r5
    3408:	41ad      	sbcs	r5, r5
    340a:	426d      	negs	r5, r5
    340c:	4445      	add	r5, r8
    340e:	18ed      	adds	r5, r5, r3
    3410:	1a2d      	subs	r5, r5, r0
    3412:	e696      	b.n	3142 <__aeabi_ddiv+0x2f6>
    3414:	1e8a      	subs	r2, r1, #2
    3416:	9903      	ldr	r1, [sp, #12]
    3418:	004d      	lsls	r5, r1, #1
    341a:	428d      	cmp	r5, r1
    341c:	4189      	sbcs	r1, r1
    341e:	4249      	negs	r1, r1
    3420:	4441      	add	r1, r8
    3422:	1876      	adds	r6, r6, r1
    3424:	9503      	str	r5, [sp, #12]
    3426:	e78f      	b.n	3348 <__aeabi_ddiv+0x4fc>
    3428:	201f      	movs	r0, #31
    342a:	4240      	negs	r0, r0
    342c:	1ac3      	subs	r3, r0, r3
    342e:	4658      	mov	r0, fp
    3430:	40d8      	lsrs	r0, r3
    3432:	0003      	movs	r3, r0
    3434:	2a20      	cmp	r2, #32
    3436:	d028      	beq.n	348a <__aeabi_ddiv+0x63e>
    3438:	2040      	movs	r0, #64	; 0x40
    343a:	465d      	mov	r5, fp
    343c:	1a82      	subs	r2, r0, r2
    343e:	4095      	lsls	r5, r2
    3440:	4329      	orrs	r1, r5
    3442:	1e4a      	subs	r2, r1, #1
    3444:	4191      	sbcs	r1, r2
    3446:	4319      	orrs	r1, r3
    3448:	2307      	movs	r3, #7
    344a:	2200      	movs	r2, #0
    344c:	400b      	ands	r3, r1
    344e:	d009      	beq.n	3464 <__aeabi_ddiv+0x618>
    3450:	230f      	movs	r3, #15
    3452:	2200      	movs	r2, #0
    3454:	400b      	ands	r3, r1
    3456:	0008      	movs	r0, r1
    3458:	2b04      	cmp	r3, #4
    345a:	d1bd      	bne.n	33d8 <__aeabi_ddiv+0x58c>
    345c:	0001      	movs	r1, r0
    345e:	0753      	lsls	r3, r2, #29
    3460:	0252      	lsls	r2, r2, #9
    3462:	0b12      	lsrs	r2, r2, #12
    3464:	08c9      	lsrs	r1, r1, #3
    3466:	4319      	orrs	r1, r3
    3468:	2301      	movs	r3, #1
    346a:	4688      	mov	r8, r1
    346c:	9902      	ldr	r1, [sp, #8]
    346e:	2400      	movs	r4, #0
    3470:	4019      	ands	r1, r3
    3472:	468c      	mov	ip, r1
    3474:	e5b8      	b.n	2fe8 <__aeabi_ddiv+0x19c>
    3476:	4552      	cmp	r2, sl
    3478:	d8be      	bhi.n	33f8 <__aeabi_ddiv+0x5ac>
    347a:	468b      	mov	fp, r1
    347c:	2500      	movs	r5, #0
    347e:	e660      	b.n	3142 <__aeabi_ddiv+0x2f6>
    3480:	9d03      	ldr	r5, [sp, #12]
    3482:	429d      	cmp	r5, r3
    3484:	d3c6      	bcc.n	3414 <__aeabi_ddiv+0x5c8>
    3486:	0011      	movs	r1, r2
    3488:	e762      	b.n	3350 <__aeabi_ddiv+0x504>
    348a:	2500      	movs	r5, #0
    348c:	e7d8      	b.n	3440 <__aeabi_ddiv+0x5f4>
    348e:	2280      	movs	r2, #128	; 0x80
    3490:	465b      	mov	r3, fp
    3492:	0312      	lsls	r2, r2, #12
    3494:	431a      	orrs	r2, r3
    3496:	9b01      	ldr	r3, [sp, #4]
    3498:	0312      	lsls	r2, r2, #12
    349a:	0b12      	lsrs	r2, r2, #12
    349c:	469c      	mov	ip, r3
    349e:	4688      	mov	r8, r1
    34a0:	4c03      	ldr	r4, [pc, #12]	; (34b0 <__aeabi_ddiv+0x664>)
    34a2:	e5a1      	b.n	2fe8 <__aeabi_ddiv+0x19c>
    34a4:	000003ff 	.word	0x000003ff
    34a8:	feffffff 	.word	0xfeffffff
    34ac:	000007fe 	.word	0x000007fe
    34b0:	000007ff 	.word	0x000007ff

000034b4 <__aeabi_dmul>:
    34b4:	b5f0      	push	{r4, r5, r6, r7, lr}
    34b6:	4657      	mov	r7, sl
    34b8:	4645      	mov	r5, r8
    34ba:	46de      	mov	lr, fp
    34bc:	464e      	mov	r6, r9
    34be:	b5e0      	push	{r5, r6, r7, lr}
    34c0:	030c      	lsls	r4, r1, #12
    34c2:	4698      	mov	r8, r3
    34c4:	004e      	lsls	r6, r1, #1
    34c6:	0b23      	lsrs	r3, r4, #12
    34c8:	b087      	sub	sp, #28
    34ca:	0007      	movs	r7, r0
    34cc:	4692      	mov	sl, r2
    34ce:	469b      	mov	fp, r3
    34d0:	0d76      	lsrs	r6, r6, #21
    34d2:	0fcd      	lsrs	r5, r1, #31
    34d4:	2e00      	cmp	r6, #0
    34d6:	d06b      	beq.n	35b0 <__aeabi_dmul+0xfc>
    34d8:	4b6d      	ldr	r3, [pc, #436]	; (3690 <__aeabi_dmul+0x1dc>)
    34da:	429e      	cmp	r6, r3
    34dc:	d035      	beq.n	354a <__aeabi_dmul+0x96>
    34de:	2480      	movs	r4, #128	; 0x80
    34e0:	465b      	mov	r3, fp
    34e2:	0f42      	lsrs	r2, r0, #29
    34e4:	0424      	lsls	r4, r4, #16
    34e6:	00db      	lsls	r3, r3, #3
    34e8:	4314      	orrs	r4, r2
    34ea:	431c      	orrs	r4, r3
    34ec:	00c3      	lsls	r3, r0, #3
    34ee:	4699      	mov	r9, r3
    34f0:	4b68      	ldr	r3, [pc, #416]	; (3694 <__aeabi_dmul+0x1e0>)
    34f2:	46a3      	mov	fp, r4
    34f4:	469c      	mov	ip, r3
    34f6:	2300      	movs	r3, #0
    34f8:	2700      	movs	r7, #0
    34fa:	4466      	add	r6, ip
    34fc:	9302      	str	r3, [sp, #8]
    34fe:	4643      	mov	r3, r8
    3500:	031c      	lsls	r4, r3, #12
    3502:	005a      	lsls	r2, r3, #1
    3504:	0fdb      	lsrs	r3, r3, #31
    3506:	4650      	mov	r0, sl
    3508:	0b24      	lsrs	r4, r4, #12
    350a:	0d52      	lsrs	r2, r2, #21
    350c:	4698      	mov	r8, r3
    350e:	d100      	bne.n	3512 <__aeabi_dmul+0x5e>
    3510:	e076      	b.n	3600 <__aeabi_dmul+0x14c>
    3512:	4b5f      	ldr	r3, [pc, #380]	; (3690 <__aeabi_dmul+0x1dc>)
    3514:	429a      	cmp	r2, r3
    3516:	d06d      	beq.n	35f4 <__aeabi_dmul+0x140>
    3518:	2380      	movs	r3, #128	; 0x80
    351a:	0f41      	lsrs	r1, r0, #29
    351c:	041b      	lsls	r3, r3, #16
    351e:	430b      	orrs	r3, r1
    3520:	495c      	ldr	r1, [pc, #368]	; (3694 <__aeabi_dmul+0x1e0>)
    3522:	00e4      	lsls	r4, r4, #3
    3524:	468c      	mov	ip, r1
    3526:	431c      	orrs	r4, r3
    3528:	00c3      	lsls	r3, r0, #3
    352a:	2000      	movs	r0, #0
    352c:	4462      	add	r2, ip
    352e:	4641      	mov	r1, r8
    3530:	18b6      	adds	r6, r6, r2
    3532:	4069      	eors	r1, r5
    3534:	1c72      	adds	r2, r6, #1
    3536:	9101      	str	r1, [sp, #4]
    3538:	4694      	mov	ip, r2
    353a:	4307      	orrs	r7, r0
    353c:	2f0f      	cmp	r7, #15
    353e:	d900      	bls.n	3542 <__aeabi_dmul+0x8e>
    3540:	e0b0      	b.n	36a4 <__aeabi_dmul+0x1f0>
    3542:	4a55      	ldr	r2, [pc, #340]	; (3698 <__aeabi_dmul+0x1e4>)
    3544:	00bf      	lsls	r7, r7, #2
    3546:	59d2      	ldr	r2, [r2, r7]
    3548:	4697      	mov	pc, r2
    354a:	465b      	mov	r3, fp
    354c:	4303      	orrs	r3, r0
    354e:	4699      	mov	r9, r3
    3550:	d000      	beq.n	3554 <__aeabi_dmul+0xa0>
    3552:	e087      	b.n	3664 <__aeabi_dmul+0x1b0>
    3554:	2300      	movs	r3, #0
    3556:	469b      	mov	fp, r3
    3558:	3302      	adds	r3, #2
    355a:	2708      	movs	r7, #8
    355c:	9302      	str	r3, [sp, #8]
    355e:	e7ce      	b.n	34fe <__aeabi_dmul+0x4a>
    3560:	4642      	mov	r2, r8
    3562:	9201      	str	r2, [sp, #4]
    3564:	2802      	cmp	r0, #2
    3566:	d067      	beq.n	3638 <__aeabi_dmul+0x184>
    3568:	2803      	cmp	r0, #3
    356a:	d100      	bne.n	356e <__aeabi_dmul+0xba>
    356c:	e20e      	b.n	398c <__aeabi_dmul+0x4d8>
    356e:	2801      	cmp	r0, #1
    3570:	d000      	beq.n	3574 <__aeabi_dmul+0xc0>
    3572:	e162      	b.n	383a <__aeabi_dmul+0x386>
    3574:	2300      	movs	r3, #0
    3576:	2400      	movs	r4, #0
    3578:	2200      	movs	r2, #0
    357a:	4699      	mov	r9, r3
    357c:	9901      	ldr	r1, [sp, #4]
    357e:	4001      	ands	r1, r0
    3580:	b2cd      	uxtb	r5, r1
    3582:	2100      	movs	r1, #0
    3584:	0312      	lsls	r2, r2, #12
    3586:	0d0b      	lsrs	r3, r1, #20
    3588:	0b12      	lsrs	r2, r2, #12
    358a:	051b      	lsls	r3, r3, #20
    358c:	4313      	orrs	r3, r2
    358e:	4a43      	ldr	r2, [pc, #268]	; (369c <__aeabi_dmul+0x1e8>)
    3590:	0524      	lsls	r4, r4, #20
    3592:	4013      	ands	r3, r2
    3594:	431c      	orrs	r4, r3
    3596:	0064      	lsls	r4, r4, #1
    3598:	07ed      	lsls	r5, r5, #31
    359a:	0864      	lsrs	r4, r4, #1
    359c:	432c      	orrs	r4, r5
    359e:	4648      	mov	r0, r9
    35a0:	0021      	movs	r1, r4
    35a2:	b007      	add	sp, #28
    35a4:	bc3c      	pop	{r2, r3, r4, r5}
    35a6:	4690      	mov	r8, r2
    35a8:	4699      	mov	r9, r3
    35aa:	46a2      	mov	sl, r4
    35ac:	46ab      	mov	fp, r5
    35ae:	bdf0      	pop	{r4, r5, r6, r7, pc}
    35b0:	4303      	orrs	r3, r0
    35b2:	4699      	mov	r9, r3
    35b4:	d04f      	beq.n	3656 <__aeabi_dmul+0x1a2>
    35b6:	465b      	mov	r3, fp
    35b8:	2b00      	cmp	r3, #0
    35ba:	d100      	bne.n	35be <__aeabi_dmul+0x10a>
    35bc:	e189      	b.n	38d2 <__aeabi_dmul+0x41e>
    35be:	4658      	mov	r0, fp
    35c0:	f000 fd7a 	bl	40b8 <__clzsi2>
    35c4:	0003      	movs	r3, r0
    35c6:	3b0b      	subs	r3, #11
    35c8:	2b1c      	cmp	r3, #28
    35ca:	dd00      	ble.n	35ce <__aeabi_dmul+0x11a>
    35cc:	e17a      	b.n	38c4 <__aeabi_dmul+0x410>
    35ce:	221d      	movs	r2, #29
    35d0:	1ad3      	subs	r3, r2, r3
    35d2:	003a      	movs	r2, r7
    35d4:	0001      	movs	r1, r0
    35d6:	465c      	mov	r4, fp
    35d8:	40da      	lsrs	r2, r3
    35da:	3908      	subs	r1, #8
    35dc:	408c      	lsls	r4, r1
    35de:	0013      	movs	r3, r2
    35e0:	408f      	lsls	r7, r1
    35e2:	4323      	orrs	r3, r4
    35e4:	469b      	mov	fp, r3
    35e6:	46b9      	mov	r9, r7
    35e8:	2300      	movs	r3, #0
    35ea:	4e2d      	ldr	r6, [pc, #180]	; (36a0 <__aeabi_dmul+0x1ec>)
    35ec:	2700      	movs	r7, #0
    35ee:	1a36      	subs	r6, r6, r0
    35f0:	9302      	str	r3, [sp, #8]
    35f2:	e784      	b.n	34fe <__aeabi_dmul+0x4a>
    35f4:	4653      	mov	r3, sl
    35f6:	4323      	orrs	r3, r4
    35f8:	d12a      	bne.n	3650 <__aeabi_dmul+0x19c>
    35fa:	2400      	movs	r4, #0
    35fc:	2002      	movs	r0, #2
    35fe:	e796      	b.n	352e <__aeabi_dmul+0x7a>
    3600:	4653      	mov	r3, sl
    3602:	4323      	orrs	r3, r4
    3604:	d020      	beq.n	3648 <__aeabi_dmul+0x194>
    3606:	2c00      	cmp	r4, #0
    3608:	d100      	bne.n	360c <__aeabi_dmul+0x158>
    360a:	e157      	b.n	38bc <__aeabi_dmul+0x408>
    360c:	0020      	movs	r0, r4
    360e:	f000 fd53 	bl	40b8 <__clzsi2>
    3612:	0003      	movs	r3, r0
    3614:	3b0b      	subs	r3, #11
    3616:	2b1c      	cmp	r3, #28
    3618:	dd00      	ble.n	361c <__aeabi_dmul+0x168>
    361a:	e149      	b.n	38b0 <__aeabi_dmul+0x3fc>
    361c:	211d      	movs	r1, #29
    361e:	1acb      	subs	r3, r1, r3
    3620:	4651      	mov	r1, sl
    3622:	0002      	movs	r2, r0
    3624:	40d9      	lsrs	r1, r3
    3626:	4653      	mov	r3, sl
    3628:	3a08      	subs	r2, #8
    362a:	4094      	lsls	r4, r2
    362c:	4093      	lsls	r3, r2
    362e:	430c      	orrs	r4, r1
    3630:	4a1b      	ldr	r2, [pc, #108]	; (36a0 <__aeabi_dmul+0x1ec>)
    3632:	1a12      	subs	r2, r2, r0
    3634:	2000      	movs	r0, #0
    3636:	e77a      	b.n	352e <__aeabi_dmul+0x7a>
    3638:	2501      	movs	r5, #1
    363a:	9b01      	ldr	r3, [sp, #4]
    363c:	4c14      	ldr	r4, [pc, #80]	; (3690 <__aeabi_dmul+0x1dc>)
    363e:	401d      	ands	r5, r3
    3640:	2300      	movs	r3, #0
    3642:	2200      	movs	r2, #0
    3644:	4699      	mov	r9, r3
    3646:	e79c      	b.n	3582 <__aeabi_dmul+0xce>
    3648:	2400      	movs	r4, #0
    364a:	2200      	movs	r2, #0
    364c:	2001      	movs	r0, #1
    364e:	e76e      	b.n	352e <__aeabi_dmul+0x7a>
    3650:	4653      	mov	r3, sl
    3652:	2003      	movs	r0, #3
    3654:	e76b      	b.n	352e <__aeabi_dmul+0x7a>
    3656:	2300      	movs	r3, #0
    3658:	469b      	mov	fp, r3
    365a:	3301      	adds	r3, #1
    365c:	2704      	movs	r7, #4
    365e:	2600      	movs	r6, #0
    3660:	9302      	str	r3, [sp, #8]
    3662:	e74c      	b.n	34fe <__aeabi_dmul+0x4a>
    3664:	2303      	movs	r3, #3
    3666:	4681      	mov	r9, r0
    3668:	270c      	movs	r7, #12
    366a:	9302      	str	r3, [sp, #8]
    366c:	e747      	b.n	34fe <__aeabi_dmul+0x4a>
    366e:	2280      	movs	r2, #128	; 0x80
    3670:	2300      	movs	r3, #0
    3672:	2500      	movs	r5, #0
    3674:	0312      	lsls	r2, r2, #12
    3676:	4699      	mov	r9, r3
    3678:	4c05      	ldr	r4, [pc, #20]	; (3690 <__aeabi_dmul+0x1dc>)
    367a:	e782      	b.n	3582 <__aeabi_dmul+0xce>
    367c:	465c      	mov	r4, fp
    367e:	464b      	mov	r3, r9
    3680:	9802      	ldr	r0, [sp, #8]
    3682:	e76f      	b.n	3564 <__aeabi_dmul+0xb0>
    3684:	465c      	mov	r4, fp
    3686:	464b      	mov	r3, r9
    3688:	9501      	str	r5, [sp, #4]
    368a:	9802      	ldr	r0, [sp, #8]
    368c:	e76a      	b.n	3564 <__aeabi_dmul+0xb0>
    368e:	46c0      	nop			; (mov r8, r8)
    3690:	000007ff 	.word	0x000007ff
    3694:	fffffc01 	.word	0xfffffc01
    3698:	00004240 	.word	0x00004240
    369c:	800fffff 	.word	0x800fffff
    36a0:	fffffc0d 	.word	0xfffffc0d
    36a4:	464a      	mov	r2, r9
    36a6:	4649      	mov	r1, r9
    36a8:	0c17      	lsrs	r7, r2, #16
    36aa:	0c1a      	lsrs	r2, r3, #16
    36ac:	041b      	lsls	r3, r3, #16
    36ae:	0c1b      	lsrs	r3, r3, #16
    36b0:	0408      	lsls	r0, r1, #16
    36b2:	0019      	movs	r1, r3
    36b4:	0c00      	lsrs	r0, r0, #16
    36b6:	4341      	muls	r1, r0
    36b8:	0015      	movs	r5, r2
    36ba:	4688      	mov	r8, r1
    36bc:	0019      	movs	r1, r3
    36be:	437d      	muls	r5, r7
    36c0:	4379      	muls	r1, r7
    36c2:	9503      	str	r5, [sp, #12]
    36c4:	4689      	mov	r9, r1
    36c6:	0029      	movs	r1, r5
    36c8:	0015      	movs	r5, r2
    36ca:	4345      	muls	r5, r0
    36cc:	444d      	add	r5, r9
    36ce:	9502      	str	r5, [sp, #8]
    36d0:	4645      	mov	r5, r8
    36d2:	0c2d      	lsrs	r5, r5, #16
    36d4:	46aa      	mov	sl, r5
    36d6:	9d02      	ldr	r5, [sp, #8]
    36d8:	4455      	add	r5, sl
    36da:	45a9      	cmp	r9, r5
    36dc:	d906      	bls.n	36ec <__aeabi_dmul+0x238>
    36de:	468a      	mov	sl, r1
    36e0:	2180      	movs	r1, #128	; 0x80
    36e2:	0249      	lsls	r1, r1, #9
    36e4:	4689      	mov	r9, r1
    36e6:	44ca      	add	sl, r9
    36e8:	4651      	mov	r1, sl
    36ea:	9103      	str	r1, [sp, #12]
    36ec:	0c29      	lsrs	r1, r5, #16
    36ee:	9104      	str	r1, [sp, #16]
    36f0:	4641      	mov	r1, r8
    36f2:	0409      	lsls	r1, r1, #16
    36f4:	042d      	lsls	r5, r5, #16
    36f6:	0c09      	lsrs	r1, r1, #16
    36f8:	4688      	mov	r8, r1
    36fa:	0029      	movs	r1, r5
    36fc:	0c25      	lsrs	r5, r4, #16
    36fe:	0424      	lsls	r4, r4, #16
    3700:	4441      	add	r1, r8
    3702:	0c24      	lsrs	r4, r4, #16
    3704:	9105      	str	r1, [sp, #20]
    3706:	0021      	movs	r1, r4
    3708:	4341      	muls	r1, r0
    370a:	4688      	mov	r8, r1
    370c:	0021      	movs	r1, r4
    370e:	4379      	muls	r1, r7
    3710:	468a      	mov	sl, r1
    3712:	4368      	muls	r0, r5
    3714:	4641      	mov	r1, r8
    3716:	4450      	add	r0, sl
    3718:	4681      	mov	r9, r0
    371a:	0c08      	lsrs	r0, r1, #16
    371c:	4448      	add	r0, r9
    371e:	436f      	muls	r7, r5
    3720:	4582      	cmp	sl, r0
    3722:	d903      	bls.n	372c <__aeabi_dmul+0x278>
    3724:	2180      	movs	r1, #128	; 0x80
    3726:	0249      	lsls	r1, r1, #9
    3728:	4689      	mov	r9, r1
    372a:	444f      	add	r7, r9
    372c:	0c01      	lsrs	r1, r0, #16
    372e:	4689      	mov	r9, r1
    3730:	0039      	movs	r1, r7
    3732:	4449      	add	r1, r9
    3734:	9102      	str	r1, [sp, #8]
    3736:	4641      	mov	r1, r8
    3738:	040f      	lsls	r7, r1, #16
    373a:	9904      	ldr	r1, [sp, #16]
    373c:	0c3f      	lsrs	r7, r7, #16
    373e:	4688      	mov	r8, r1
    3740:	0400      	lsls	r0, r0, #16
    3742:	19c0      	adds	r0, r0, r7
    3744:	4480      	add	r8, r0
    3746:	4641      	mov	r1, r8
    3748:	9104      	str	r1, [sp, #16]
    374a:	4659      	mov	r1, fp
    374c:	0c0f      	lsrs	r7, r1, #16
    374e:	0409      	lsls	r1, r1, #16
    3750:	0c09      	lsrs	r1, r1, #16
    3752:	4688      	mov	r8, r1
    3754:	4359      	muls	r1, r3
    3756:	468a      	mov	sl, r1
    3758:	0039      	movs	r1, r7
    375a:	4351      	muls	r1, r2
    375c:	4689      	mov	r9, r1
    375e:	4641      	mov	r1, r8
    3760:	434a      	muls	r2, r1
    3762:	4651      	mov	r1, sl
    3764:	0c09      	lsrs	r1, r1, #16
    3766:	468b      	mov	fp, r1
    3768:	437b      	muls	r3, r7
    376a:	18d2      	adds	r2, r2, r3
    376c:	445a      	add	r2, fp
    376e:	4293      	cmp	r3, r2
    3770:	d903      	bls.n	377a <__aeabi_dmul+0x2c6>
    3772:	2380      	movs	r3, #128	; 0x80
    3774:	025b      	lsls	r3, r3, #9
    3776:	469b      	mov	fp, r3
    3778:	44d9      	add	r9, fp
    377a:	4651      	mov	r1, sl
    377c:	0409      	lsls	r1, r1, #16
    377e:	0c09      	lsrs	r1, r1, #16
    3780:	468a      	mov	sl, r1
    3782:	4641      	mov	r1, r8
    3784:	4361      	muls	r1, r4
    3786:	437c      	muls	r4, r7
    3788:	0c13      	lsrs	r3, r2, #16
    378a:	0412      	lsls	r2, r2, #16
    378c:	444b      	add	r3, r9
    378e:	4452      	add	r2, sl
    3790:	46a1      	mov	r9, r4
    3792:	468a      	mov	sl, r1
    3794:	003c      	movs	r4, r7
    3796:	4641      	mov	r1, r8
    3798:	436c      	muls	r4, r5
    379a:	434d      	muls	r5, r1
    379c:	4651      	mov	r1, sl
    379e:	444d      	add	r5, r9
    37a0:	0c0f      	lsrs	r7, r1, #16
    37a2:	197d      	adds	r5, r7, r5
    37a4:	45a9      	cmp	r9, r5
    37a6:	d903      	bls.n	37b0 <__aeabi_dmul+0x2fc>
    37a8:	2180      	movs	r1, #128	; 0x80
    37aa:	0249      	lsls	r1, r1, #9
    37ac:	4688      	mov	r8, r1
    37ae:	4444      	add	r4, r8
    37b0:	9f04      	ldr	r7, [sp, #16]
    37b2:	9903      	ldr	r1, [sp, #12]
    37b4:	46b8      	mov	r8, r7
    37b6:	4441      	add	r1, r8
    37b8:	468b      	mov	fp, r1
    37ba:	4583      	cmp	fp, r0
    37bc:	4180      	sbcs	r0, r0
    37be:	4241      	negs	r1, r0
    37c0:	4688      	mov	r8, r1
    37c2:	4651      	mov	r1, sl
    37c4:	0408      	lsls	r0, r1, #16
    37c6:	042f      	lsls	r7, r5, #16
    37c8:	0c00      	lsrs	r0, r0, #16
    37ca:	183f      	adds	r7, r7, r0
    37cc:	4658      	mov	r0, fp
    37ce:	9902      	ldr	r1, [sp, #8]
    37d0:	1810      	adds	r0, r2, r0
    37d2:	4689      	mov	r9, r1
    37d4:	4290      	cmp	r0, r2
    37d6:	4192      	sbcs	r2, r2
    37d8:	444f      	add	r7, r9
    37da:	46ba      	mov	sl, r7
    37dc:	4252      	negs	r2, r2
    37de:	4699      	mov	r9, r3
    37e0:	4693      	mov	fp, r2
    37e2:	44c2      	add	sl, r8
    37e4:	44d1      	add	r9, sl
    37e6:	44cb      	add	fp, r9
    37e8:	428f      	cmp	r7, r1
    37ea:	41bf      	sbcs	r7, r7
    37ec:	45c2      	cmp	sl, r8
    37ee:	4189      	sbcs	r1, r1
    37f0:	4599      	cmp	r9, r3
    37f2:	419b      	sbcs	r3, r3
    37f4:	4593      	cmp	fp, r2
    37f6:	4192      	sbcs	r2, r2
    37f8:	427f      	negs	r7, r7
    37fa:	4249      	negs	r1, r1
    37fc:	0c2d      	lsrs	r5, r5, #16
    37fe:	4252      	negs	r2, r2
    3800:	430f      	orrs	r7, r1
    3802:	425b      	negs	r3, r3
    3804:	4313      	orrs	r3, r2
    3806:	197f      	adds	r7, r7, r5
    3808:	18ff      	adds	r7, r7, r3
    380a:	465b      	mov	r3, fp
    380c:	193c      	adds	r4, r7, r4
    380e:	0ddb      	lsrs	r3, r3, #23
    3810:	9a05      	ldr	r2, [sp, #20]
    3812:	0264      	lsls	r4, r4, #9
    3814:	431c      	orrs	r4, r3
    3816:	0243      	lsls	r3, r0, #9
    3818:	4313      	orrs	r3, r2
    381a:	1e5d      	subs	r5, r3, #1
    381c:	41ab      	sbcs	r3, r5
    381e:	465a      	mov	r2, fp
    3820:	0dc0      	lsrs	r0, r0, #23
    3822:	4303      	orrs	r3, r0
    3824:	0252      	lsls	r2, r2, #9
    3826:	4313      	orrs	r3, r2
    3828:	01e2      	lsls	r2, r4, #7
    382a:	d556      	bpl.n	38da <__aeabi_dmul+0x426>
    382c:	2001      	movs	r0, #1
    382e:	085a      	lsrs	r2, r3, #1
    3830:	4003      	ands	r3, r0
    3832:	4313      	orrs	r3, r2
    3834:	07e2      	lsls	r2, r4, #31
    3836:	4313      	orrs	r3, r2
    3838:	0864      	lsrs	r4, r4, #1
    383a:	485a      	ldr	r0, [pc, #360]	; (39a4 <__aeabi_dmul+0x4f0>)
    383c:	4460      	add	r0, ip
    383e:	2800      	cmp	r0, #0
    3840:	dd4d      	ble.n	38de <__aeabi_dmul+0x42a>
    3842:	075a      	lsls	r2, r3, #29
    3844:	d009      	beq.n	385a <__aeabi_dmul+0x3a6>
    3846:	220f      	movs	r2, #15
    3848:	401a      	ands	r2, r3
    384a:	2a04      	cmp	r2, #4
    384c:	d005      	beq.n	385a <__aeabi_dmul+0x3a6>
    384e:	1d1a      	adds	r2, r3, #4
    3850:	429a      	cmp	r2, r3
    3852:	419b      	sbcs	r3, r3
    3854:	425b      	negs	r3, r3
    3856:	18e4      	adds	r4, r4, r3
    3858:	0013      	movs	r3, r2
    385a:	01e2      	lsls	r2, r4, #7
    385c:	d504      	bpl.n	3868 <__aeabi_dmul+0x3b4>
    385e:	2080      	movs	r0, #128	; 0x80
    3860:	4a51      	ldr	r2, [pc, #324]	; (39a8 <__aeabi_dmul+0x4f4>)
    3862:	00c0      	lsls	r0, r0, #3
    3864:	4014      	ands	r4, r2
    3866:	4460      	add	r0, ip
    3868:	4a50      	ldr	r2, [pc, #320]	; (39ac <__aeabi_dmul+0x4f8>)
    386a:	4290      	cmp	r0, r2
    386c:	dd00      	ble.n	3870 <__aeabi_dmul+0x3bc>
    386e:	e6e3      	b.n	3638 <__aeabi_dmul+0x184>
    3870:	2501      	movs	r5, #1
    3872:	08db      	lsrs	r3, r3, #3
    3874:	0762      	lsls	r2, r4, #29
    3876:	431a      	orrs	r2, r3
    3878:	0264      	lsls	r4, r4, #9
    387a:	9b01      	ldr	r3, [sp, #4]
    387c:	4691      	mov	r9, r2
    387e:	0b22      	lsrs	r2, r4, #12
    3880:	0544      	lsls	r4, r0, #21
    3882:	0d64      	lsrs	r4, r4, #21
    3884:	401d      	ands	r5, r3
    3886:	e67c      	b.n	3582 <__aeabi_dmul+0xce>
    3888:	2280      	movs	r2, #128	; 0x80
    388a:	4659      	mov	r1, fp
    388c:	0312      	lsls	r2, r2, #12
    388e:	4211      	tst	r1, r2
    3890:	d008      	beq.n	38a4 <__aeabi_dmul+0x3f0>
    3892:	4214      	tst	r4, r2
    3894:	d106      	bne.n	38a4 <__aeabi_dmul+0x3f0>
    3896:	4322      	orrs	r2, r4
    3898:	0312      	lsls	r2, r2, #12
    389a:	0b12      	lsrs	r2, r2, #12
    389c:	4645      	mov	r5, r8
    389e:	4699      	mov	r9, r3
    38a0:	4c43      	ldr	r4, [pc, #268]	; (39b0 <__aeabi_dmul+0x4fc>)
    38a2:	e66e      	b.n	3582 <__aeabi_dmul+0xce>
    38a4:	465b      	mov	r3, fp
    38a6:	431a      	orrs	r2, r3
    38a8:	0312      	lsls	r2, r2, #12
    38aa:	0b12      	lsrs	r2, r2, #12
    38ac:	4c40      	ldr	r4, [pc, #256]	; (39b0 <__aeabi_dmul+0x4fc>)
    38ae:	e668      	b.n	3582 <__aeabi_dmul+0xce>
    38b0:	0003      	movs	r3, r0
    38b2:	4654      	mov	r4, sl
    38b4:	3b28      	subs	r3, #40	; 0x28
    38b6:	409c      	lsls	r4, r3
    38b8:	2300      	movs	r3, #0
    38ba:	e6b9      	b.n	3630 <__aeabi_dmul+0x17c>
    38bc:	f000 fbfc 	bl	40b8 <__clzsi2>
    38c0:	3020      	adds	r0, #32
    38c2:	e6a6      	b.n	3612 <__aeabi_dmul+0x15e>
    38c4:	0003      	movs	r3, r0
    38c6:	3b28      	subs	r3, #40	; 0x28
    38c8:	409f      	lsls	r7, r3
    38ca:	2300      	movs	r3, #0
    38cc:	46bb      	mov	fp, r7
    38ce:	4699      	mov	r9, r3
    38d0:	e68a      	b.n	35e8 <__aeabi_dmul+0x134>
    38d2:	f000 fbf1 	bl	40b8 <__clzsi2>
    38d6:	3020      	adds	r0, #32
    38d8:	e674      	b.n	35c4 <__aeabi_dmul+0x110>
    38da:	46b4      	mov	ip, r6
    38dc:	e7ad      	b.n	383a <__aeabi_dmul+0x386>
    38de:	2501      	movs	r5, #1
    38e0:	1a2a      	subs	r2, r5, r0
    38e2:	2a38      	cmp	r2, #56	; 0x38
    38e4:	dd06      	ble.n	38f4 <__aeabi_dmul+0x440>
    38e6:	9b01      	ldr	r3, [sp, #4]
    38e8:	2400      	movs	r4, #0
    38ea:	401d      	ands	r5, r3
    38ec:	2300      	movs	r3, #0
    38ee:	2200      	movs	r2, #0
    38f0:	4699      	mov	r9, r3
    38f2:	e646      	b.n	3582 <__aeabi_dmul+0xce>
    38f4:	2a1f      	cmp	r2, #31
    38f6:	dc21      	bgt.n	393c <__aeabi_dmul+0x488>
    38f8:	2520      	movs	r5, #32
    38fa:	0020      	movs	r0, r4
    38fc:	1aad      	subs	r5, r5, r2
    38fe:	001e      	movs	r6, r3
    3900:	40ab      	lsls	r3, r5
    3902:	40a8      	lsls	r0, r5
    3904:	40d6      	lsrs	r6, r2
    3906:	1e5d      	subs	r5, r3, #1
    3908:	41ab      	sbcs	r3, r5
    390a:	4330      	orrs	r0, r6
    390c:	4318      	orrs	r0, r3
    390e:	40d4      	lsrs	r4, r2
    3910:	0743      	lsls	r3, r0, #29
    3912:	d009      	beq.n	3928 <__aeabi_dmul+0x474>
    3914:	230f      	movs	r3, #15
    3916:	4003      	ands	r3, r0
    3918:	2b04      	cmp	r3, #4
    391a:	d005      	beq.n	3928 <__aeabi_dmul+0x474>
    391c:	0003      	movs	r3, r0
    391e:	1d18      	adds	r0, r3, #4
    3920:	4298      	cmp	r0, r3
    3922:	419b      	sbcs	r3, r3
    3924:	425b      	negs	r3, r3
    3926:	18e4      	adds	r4, r4, r3
    3928:	0223      	lsls	r3, r4, #8
    392a:	d521      	bpl.n	3970 <__aeabi_dmul+0x4bc>
    392c:	2501      	movs	r5, #1
    392e:	9b01      	ldr	r3, [sp, #4]
    3930:	2401      	movs	r4, #1
    3932:	401d      	ands	r5, r3
    3934:	2300      	movs	r3, #0
    3936:	2200      	movs	r2, #0
    3938:	4699      	mov	r9, r3
    393a:	e622      	b.n	3582 <__aeabi_dmul+0xce>
    393c:	251f      	movs	r5, #31
    393e:	0021      	movs	r1, r4
    3940:	426d      	negs	r5, r5
    3942:	1a28      	subs	r0, r5, r0
    3944:	40c1      	lsrs	r1, r0
    3946:	0008      	movs	r0, r1
    3948:	2a20      	cmp	r2, #32
    394a:	d01d      	beq.n	3988 <__aeabi_dmul+0x4d4>
    394c:	355f      	adds	r5, #95	; 0x5f
    394e:	1aaa      	subs	r2, r5, r2
    3950:	4094      	lsls	r4, r2
    3952:	4323      	orrs	r3, r4
    3954:	1e5c      	subs	r4, r3, #1
    3956:	41a3      	sbcs	r3, r4
    3958:	2507      	movs	r5, #7
    395a:	4303      	orrs	r3, r0
    395c:	401d      	ands	r5, r3
    395e:	2200      	movs	r2, #0
    3960:	2d00      	cmp	r5, #0
    3962:	d009      	beq.n	3978 <__aeabi_dmul+0x4c4>
    3964:	220f      	movs	r2, #15
    3966:	2400      	movs	r4, #0
    3968:	401a      	ands	r2, r3
    396a:	0018      	movs	r0, r3
    396c:	2a04      	cmp	r2, #4
    396e:	d1d6      	bne.n	391e <__aeabi_dmul+0x46a>
    3970:	0003      	movs	r3, r0
    3972:	0765      	lsls	r5, r4, #29
    3974:	0264      	lsls	r4, r4, #9
    3976:	0b22      	lsrs	r2, r4, #12
    3978:	08db      	lsrs	r3, r3, #3
    397a:	432b      	orrs	r3, r5
    397c:	2501      	movs	r5, #1
    397e:	4699      	mov	r9, r3
    3980:	9b01      	ldr	r3, [sp, #4]
    3982:	2400      	movs	r4, #0
    3984:	401d      	ands	r5, r3
    3986:	e5fc      	b.n	3582 <__aeabi_dmul+0xce>
    3988:	2400      	movs	r4, #0
    398a:	e7e2      	b.n	3952 <__aeabi_dmul+0x49e>
    398c:	2280      	movs	r2, #128	; 0x80
    398e:	2501      	movs	r5, #1
    3990:	0312      	lsls	r2, r2, #12
    3992:	4322      	orrs	r2, r4
    3994:	9901      	ldr	r1, [sp, #4]
    3996:	0312      	lsls	r2, r2, #12
    3998:	0b12      	lsrs	r2, r2, #12
    399a:	400d      	ands	r5, r1
    399c:	4699      	mov	r9, r3
    399e:	4c04      	ldr	r4, [pc, #16]	; (39b0 <__aeabi_dmul+0x4fc>)
    39a0:	e5ef      	b.n	3582 <__aeabi_dmul+0xce>
    39a2:	46c0      	nop			; (mov r8, r8)
    39a4:	000003ff 	.word	0x000003ff
    39a8:	feffffff 	.word	0xfeffffff
    39ac:	000007fe 	.word	0x000007fe
    39b0:	000007ff 	.word	0x000007ff

000039b4 <__aeabi_dsub>:
    39b4:	b5f0      	push	{r4, r5, r6, r7, lr}
    39b6:	4646      	mov	r6, r8
    39b8:	46d6      	mov	lr, sl
    39ba:	464f      	mov	r7, r9
    39bc:	030c      	lsls	r4, r1, #12
    39be:	b5c0      	push	{r6, r7, lr}
    39c0:	0fcd      	lsrs	r5, r1, #31
    39c2:	004e      	lsls	r6, r1, #1
    39c4:	0a61      	lsrs	r1, r4, #9
    39c6:	0f44      	lsrs	r4, r0, #29
    39c8:	430c      	orrs	r4, r1
    39ca:	00c1      	lsls	r1, r0, #3
    39cc:	0058      	lsls	r0, r3, #1
    39ce:	0d40      	lsrs	r0, r0, #21
    39d0:	4684      	mov	ip, r0
    39d2:	468a      	mov	sl, r1
    39d4:	000f      	movs	r7, r1
    39d6:	0319      	lsls	r1, r3, #12
    39d8:	0f50      	lsrs	r0, r2, #29
    39da:	0a49      	lsrs	r1, r1, #9
    39dc:	4301      	orrs	r1, r0
    39de:	48c6      	ldr	r0, [pc, #792]	; (3cf8 <__aeabi_dsub+0x344>)
    39e0:	0d76      	lsrs	r6, r6, #21
    39e2:	46a8      	mov	r8, r5
    39e4:	0fdb      	lsrs	r3, r3, #31
    39e6:	00d2      	lsls	r2, r2, #3
    39e8:	4584      	cmp	ip, r0
    39ea:	d100      	bne.n	39ee <__aeabi_dsub+0x3a>
    39ec:	e0d8      	b.n	3ba0 <__aeabi_dsub+0x1ec>
    39ee:	2001      	movs	r0, #1
    39f0:	4043      	eors	r3, r0
    39f2:	42ab      	cmp	r3, r5
    39f4:	d100      	bne.n	39f8 <__aeabi_dsub+0x44>
    39f6:	e0a6      	b.n	3b46 <__aeabi_dsub+0x192>
    39f8:	4660      	mov	r0, ip
    39fa:	1a35      	subs	r5, r6, r0
    39fc:	2d00      	cmp	r5, #0
    39fe:	dc00      	bgt.n	3a02 <__aeabi_dsub+0x4e>
    3a00:	e105      	b.n	3c0e <__aeabi_dsub+0x25a>
    3a02:	2800      	cmp	r0, #0
    3a04:	d110      	bne.n	3a28 <__aeabi_dsub+0x74>
    3a06:	000b      	movs	r3, r1
    3a08:	4313      	orrs	r3, r2
    3a0a:	d100      	bne.n	3a0e <__aeabi_dsub+0x5a>
    3a0c:	e0d7      	b.n	3bbe <__aeabi_dsub+0x20a>
    3a0e:	1e6b      	subs	r3, r5, #1
    3a10:	2b00      	cmp	r3, #0
    3a12:	d000      	beq.n	3a16 <__aeabi_dsub+0x62>
    3a14:	e14b      	b.n	3cae <__aeabi_dsub+0x2fa>
    3a16:	4653      	mov	r3, sl
    3a18:	1a9f      	subs	r7, r3, r2
    3a1a:	45ba      	cmp	sl, r7
    3a1c:	4180      	sbcs	r0, r0
    3a1e:	1a64      	subs	r4, r4, r1
    3a20:	4240      	negs	r0, r0
    3a22:	1a24      	subs	r4, r4, r0
    3a24:	2601      	movs	r6, #1
    3a26:	e01e      	b.n	3a66 <__aeabi_dsub+0xb2>
    3a28:	4bb3      	ldr	r3, [pc, #716]	; (3cf8 <__aeabi_dsub+0x344>)
    3a2a:	429e      	cmp	r6, r3
    3a2c:	d048      	beq.n	3ac0 <__aeabi_dsub+0x10c>
    3a2e:	2380      	movs	r3, #128	; 0x80
    3a30:	041b      	lsls	r3, r3, #16
    3a32:	4319      	orrs	r1, r3
    3a34:	2d38      	cmp	r5, #56	; 0x38
    3a36:	dd00      	ble.n	3a3a <__aeabi_dsub+0x86>
    3a38:	e119      	b.n	3c6e <__aeabi_dsub+0x2ba>
    3a3a:	2d1f      	cmp	r5, #31
    3a3c:	dd00      	ble.n	3a40 <__aeabi_dsub+0x8c>
    3a3e:	e14c      	b.n	3cda <__aeabi_dsub+0x326>
    3a40:	2320      	movs	r3, #32
    3a42:	000f      	movs	r7, r1
    3a44:	1b5b      	subs	r3, r3, r5
    3a46:	0010      	movs	r0, r2
    3a48:	409a      	lsls	r2, r3
    3a4a:	409f      	lsls	r7, r3
    3a4c:	40e8      	lsrs	r0, r5
    3a4e:	1e53      	subs	r3, r2, #1
    3a50:	419a      	sbcs	r2, r3
    3a52:	40e9      	lsrs	r1, r5
    3a54:	4307      	orrs	r7, r0
    3a56:	4317      	orrs	r7, r2
    3a58:	4653      	mov	r3, sl
    3a5a:	1bdf      	subs	r7, r3, r7
    3a5c:	1a61      	subs	r1, r4, r1
    3a5e:	45ba      	cmp	sl, r7
    3a60:	41a4      	sbcs	r4, r4
    3a62:	4264      	negs	r4, r4
    3a64:	1b0c      	subs	r4, r1, r4
    3a66:	0223      	lsls	r3, r4, #8
    3a68:	d400      	bmi.n	3a6c <__aeabi_dsub+0xb8>
    3a6a:	e0c5      	b.n	3bf8 <__aeabi_dsub+0x244>
    3a6c:	0264      	lsls	r4, r4, #9
    3a6e:	0a65      	lsrs	r5, r4, #9
    3a70:	2d00      	cmp	r5, #0
    3a72:	d100      	bne.n	3a76 <__aeabi_dsub+0xc2>
    3a74:	e0f6      	b.n	3c64 <__aeabi_dsub+0x2b0>
    3a76:	0028      	movs	r0, r5
    3a78:	f000 fb1e 	bl	40b8 <__clzsi2>
    3a7c:	0003      	movs	r3, r0
    3a7e:	3b08      	subs	r3, #8
    3a80:	2b1f      	cmp	r3, #31
    3a82:	dd00      	ble.n	3a86 <__aeabi_dsub+0xd2>
    3a84:	e0e9      	b.n	3c5a <__aeabi_dsub+0x2a6>
    3a86:	2220      	movs	r2, #32
    3a88:	003c      	movs	r4, r7
    3a8a:	1ad2      	subs	r2, r2, r3
    3a8c:	409d      	lsls	r5, r3
    3a8e:	40d4      	lsrs	r4, r2
    3a90:	409f      	lsls	r7, r3
    3a92:	4325      	orrs	r5, r4
    3a94:	429e      	cmp	r6, r3
    3a96:	dd00      	ble.n	3a9a <__aeabi_dsub+0xe6>
    3a98:	e0db      	b.n	3c52 <__aeabi_dsub+0x29e>
    3a9a:	1b9e      	subs	r6, r3, r6
    3a9c:	1c73      	adds	r3, r6, #1
    3a9e:	2b1f      	cmp	r3, #31
    3aa0:	dd00      	ble.n	3aa4 <__aeabi_dsub+0xf0>
    3aa2:	e10a      	b.n	3cba <__aeabi_dsub+0x306>
    3aa4:	2220      	movs	r2, #32
    3aa6:	0038      	movs	r0, r7
    3aa8:	1ad2      	subs	r2, r2, r3
    3aaa:	0029      	movs	r1, r5
    3aac:	4097      	lsls	r7, r2
    3aae:	002c      	movs	r4, r5
    3ab0:	4091      	lsls	r1, r2
    3ab2:	40d8      	lsrs	r0, r3
    3ab4:	1e7a      	subs	r2, r7, #1
    3ab6:	4197      	sbcs	r7, r2
    3ab8:	40dc      	lsrs	r4, r3
    3aba:	2600      	movs	r6, #0
    3abc:	4301      	orrs	r1, r0
    3abe:	430f      	orrs	r7, r1
    3ac0:	077b      	lsls	r3, r7, #29
    3ac2:	d009      	beq.n	3ad8 <__aeabi_dsub+0x124>
    3ac4:	230f      	movs	r3, #15
    3ac6:	403b      	ands	r3, r7
    3ac8:	2b04      	cmp	r3, #4
    3aca:	d005      	beq.n	3ad8 <__aeabi_dsub+0x124>
    3acc:	1d3b      	adds	r3, r7, #4
    3ace:	42bb      	cmp	r3, r7
    3ad0:	41bf      	sbcs	r7, r7
    3ad2:	427f      	negs	r7, r7
    3ad4:	19e4      	adds	r4, r4, r7
    3ad6:	001f      	movs	r7, r3
    3ad8:	0223      	lsls	r3, r4, #8
    3ada:	d525      	bpl.n	3b28 <__aeabi_dsub+0x174>
    3adc:	4b86      	ldr	r3, [pc, #536]	; (3cf8 <__aeabi_dsub+0x344>)
    3ade:	3601      	adds	r6, #1
    3ae0:	429e      	cmp	r6, r3
    3ae2:	d100      	bne.n	3ae6 <__aeabi_dsub+0x132>
    3ae4:	e0af      	b.n	3c46 <__aeabi_dsub+0x292>
    3ae6:	4b85      	ldr	r3, [pc, #532]	; (3cfc <__aeabi_dsub+0x348>)
    3ae8:	2501      	movs	r5, #1
    3aea:	401c      	ands	r4, r3
    3aec:	4643      	mov	r3, r8
    3aee:	0762      	lsls	r2, r4, #29
    3af0:	08ff      	lsrs	r7, r7, #3
    3af2:	0264      	lsls	r4, r4, #9
    3af4:	0576      	lsls	r6, r6, #21
    3af6:	4317      	orrs	r7, r2
    3af8:	0b24      	lsrs	r4, r4, #12
    3afa:	0d76      	lsrs	r6, r6, #21
    3afc:	401d      	ands	r5, r3
    3afe:	2100      	movs	r1, #0
    3b00:	0324      	lsls	r4, r4, #12
    3b02:	0b23      	lsrs	r3, r4, #12
    3b04:	0d0c      	lsrs	r4, r1, #20
    3b06:	4a7e      	ldr	r2, [pc, #504]	; (3d00 <__aeabi_dsub+0x34c>)
    3b08:	0524      	lsls	r4, r4, #20
    3b0a:	431c      	orrs	r4, r3
    3b0c:	4014      	ands	r4, r2
    3b0e:	0533      	lsls	r3, r6, #20
    3b10:	4323      	orrs	r3, r4
    3b12:	005b      	lsls	r3, r3, #1
    3b14:	07ed      	lsls	r5, r5, #31
    3b16:	085b      	lsrs	r3, r3, #1
    3b18:	432b      	orrs	r3, r5
    3b1a:	0038      	movs	r0, r7
    3b1c:	0019      	movs	r1, r3
    3b1e:	bc1c      	pop	{r2, r3, r4}
    3b20:	4690      	mov	r8, r2
    3b22:	4699      	mov	r9, r3
    3b24:	46a2      	mov	sl, r4
    3b26:	bdf0      	pop	{r4, r5, r6, r7, pc}
    3b28:	2501      	movs	r5, #1
    3b2a:	4643      	mov	r3, r8
    3b2c:	0762      	lsls	r2, r4, #29
    3b2e:	08ff      	lsrs	r7, r7, #3
    3b30:	4317      	orrs	r7, r2
    3b32:	08e4      	lsrs	r4, r4, #3
    3b34:	401d      	ands	r5, r3
    3b36:	4b70      	ldr	r3, [pc, #448]	; (3cf8 <__aeabi_dsub+0x344>)
    3b38:	429e      	cmp	r6, r3
    3b3a:	d036      	beq.n	3baa <__aeabi_dsub+0x1f6>
    3b3c:	0324      	lsls	r4, r4, #12
    3b3e:	0576      	lsls	r6, r6, #21
    3b40:	0b24      	lsrs	r4, r4, #12
    3b42:	0d76      	lsrs	r6, r6, #21
    3b44:	e7db      	b.n	3afe <__aeabi_dsub+0x14a>
    3b46:	4663      	mov	r3, ip
    3b48:	1af3      	subs	r3, r6, r3
    3b4a:	2b00      	cmp	r3, #0
    3b4c:	dc00      	bgt.n	3b50 <__aeabi_dsub+0x19c>
    3b4e:	e094      	b.n	3c7a <__aeabi_dsub+0x2c6>
    3b50:	4660      	mov	r0, ip
    3b52:	2800      	cmp	r0, #0
    3b54:	d035      	beq.n	3bc2 <__aeabi_dsub+0x20e>
    3b56:	4868      	ldr	r0, [pc, #416]	; (3cf8 <__aeabi_dsub+0x344>)
    3b58:	4286      	cmp	r6, r0
    3b5a:	d0b1      	beq.n	3ac0 <__aeabi_dsub+0x10c>
    3b5c:	2780      	movs	r7, #128	; 0x80
    3b5e:	043f      	lsls	r7, r7, #16
    3b60:	4339      	orrs	r1, r7
    3b62:	2b38      	cmp	r3, #56	; 0x38
    3b64:	dc00      	bgt.n	3b68 <__aeabi_dsub+0x1b4>
    3b66:	e0fd      	b.n	3d64 <__aeabi_dsub+0x3b0>
    3b68:	430a      	orrs	r2, r1
    3b6a:	0017      	movs	r7, r2
    3b6c:	2100      	movs	r1, #0
    3b6e:	1e7a      	subs	r2, r7, #1
    3b70:	4197      	sbcs	r7, r2
    3b72:	4457      	add	r7, sl
    3b74:	4557      	cmp	r7, sl
    3b76:	4180      	sbcs	r0, r0
    3b78:	1909      	adds	r1, r1, r4
    3b7a:	4244      	negs	r4, r0
    3b7c:	190c      	adds	r4, r1, r4
    3b7e:	0223      	lsls	r3, r4, #8
    3b80:	d53a      	bpl.n	3bf8 <__aeabi_dsub+0x244>
    3b82:	4b5d      	ldr	r3, [pc, #372]	; (3cf8 <__aeabi_dsub+0x344>)
    3b84:	3601      	adds	r6, #1
    3b86:	429e      	cmp	r6, r3
    3b88:	d100      	bne.n	3b8c <__aeabi_dsub+0x1d8>
    3b8a:	e14b      	b.n	3e24 <__aeabi_dsub+0x470>
    3b8c:	2201      	movs	r2, #1
    3b8e:	4b5b      	ldr	r3, [pc, #364]	; (3cfc <__aeabi_dsub+0x348>)
    3b90:	401c      	ands	r4, r3
    3b92:	087b      	lsrs	r3, r7, #1
    3b94:	4017      	ands	r7, r2
    3b96:	431f      	orrs	r7, r3
    3b98:	07e2      	lsls	r2, r4, #31
    3b9a:	4317      	orrs	r7, r2
    3b9c:	0864      	lsrs	r4, r4, #1
    3b9e:	e78f      	b.n	3ac0 <__aeabi_dsub+0x10c>
    3ba0:	0008      	movs	r0, r1
    3ba2:	4310      	orrs	r0, r2
    3ba4:	d000      	beq.n	3ba8 <__aeabi_dsub+0x1f4>
    3ba6:	e724      	b.n	39f2 <__aeabi_dsub+0x3e>
    3ba8:	e721      	b.n	39ee <__aeabi_dsub+0x3a>
    3baa:	0023      	movs	r3, r4
    3bac:	433b      	orrs	r3, r7
    3bae:	d100      	bne.n	3bb2 <__aeabi_dsub+0x1fe>
    3bb0:	e1b9      	b.n	3f26 <__aeabi_dsub+0x572>
    3bb2:	2280      	movs	r2, #128	; 0x80
    3bb4:	0312      	lsls	r2, r2, #12
    3bb6:	4314      	orrs	r4, r2
    3bb8:	0324      	lsls	r4, r4, #12
    3bba:	0b24      	lsrs	r4, r4, #12
    3bbc:	e79f      	b.n	3afe <__aeabi_dsub+0x14a>
    3bbe:	002e      	movs	r6, r5
    3bc0:	e77e      	b.n	3ac0 <__aeabi_dsub+0x10c>
    3bc2:	0008      	movs	r0, r1
    3bc4:	4310      	orrs	r0, r2
    3bc6:	d100      	bne.n	3bca <__aeabi_dsub+0x216>
    3bc8:	e0ca      	b.n	3d60 <__aeabi_dsub+0x3ac>
    3bca:	1e58      	subs	r0, r3, #1
    3bcc:	4684      	mov	ip, r0
    3bce:	2800      	cmp	r0, #0
    3bd0:	d000      	beq.n	3bd4 <__aeabi_dsub+0x220>
    3bd2:	e0e7      	b.n	3da4 <__aeabi_dsub+0x3f0>
    3bd4:	4452      	add	r2, sl
    3bd6:	4552      	cmp	r2, sl
    3bd8:	4180      	sbcs	r0, r0
    3bda:	1864      	adds	r4, r4, r1
    3bdc:	4240      	negs	r0, r0
    3bde:	1824      	adds	r4, r4, r0
    3be0:	0017      	movs	r7, r2
    3be2:	2601      	movs	r6, #1
    3be4:	0223      	lsls	r3, r4, #8
    3be6:	d507      	bpl.n	3bf8 <__aeabi_dsub+0x244>
    3be8:	2602      	movs	r6, #2
    3bea:	e7cf      	b.n	3b8c <__aeabi_dsub+0x1d8>
    3bec:	4664      	mov	r4, ip
    3bee:	432c      	orrs	r4, r5
    3bf0:	d100      	bne.n	3bf4 <__aeabi_dsub+0x240>
    3bf2:	e1b3      	b.n	3f5c <__aeabi_dsub+0x5a8>
    3bf4:	002c      	movs	r4, r5
    3bf6:	4667      	mov	r7, ip
    3bf8:	077b      	lsls	r3, r7, #29
    3bfa:	d000      	beq.n	3bfe <__aeabi_dsub+0x24a>
    3bfc:	e762      	b.n	3ac4 <__aeabi_dsub+0x110>
    3bfe:	0763      	lsls	r3, r4, #29
    3c00:	08ff      	lsrs	r7, r7, #3
    3c02:	431f      	orrs	r7, r3
    3c04:	2501      	movs	r5, #1
    3c06:	4643      	mov	r3, r8
    3c08:	08e4      	lsrs	r4, r4, #3
    3c0a:	401d      	ands	r5, r3
    3c0c:	e793      	b.n	3b36 <__aeabi_dsub+0x182>
    3c0e:	2d00      	cmp	r5, #0
    3c10:	d178      	bne.n	3d04 <__aeabi_dsub+0x350>
    3c12:	1c75      	adds	r5, r6, #1
    3c14:	056d      	lsls	r5, r5, #21
    3c16:	0d6d      	lsrs	r5, r5, #21
    3c18:	2d01      	cmp	r5, #1
    3c1a:	dc00      	bgt.n	3c1e <__aeabi_dsub+0x26a>
    3c1c:	e0f2      	b.n	3e04 <__aeabi_dsub+0x450>
    3c1e:	4650      	mov	r0, sl
    3c20:	1a80      	subs	r0, r0, r2
    3c22:	4582      	cmp	sl, r0
    3c24:	41bf      	sbcs	r7, r7
    3c26:	1a65      	subs	r5, r4, r1
    3c28:	427f      	negs	r7, r7
    3c2a:	1bed      	subs	r5, r5, r7
    3c2c:	4684      	mov	ip, r0
    3c2e:	0228      	lsls	r0, r5, #8
    3c30:	d400      	bmi.n	3c34 <__aeabi_dsub+0x280>
    3c32:	e08c      	b.n	3d4e <__aeabi_dsub+0x39a>
    3c34:	4650      	mov	r0, sl
    3c36:	1a17      	subs	r7, r2, r0
    3c38:	42ba      	cmp	r2, r7
    3c3a:	4192      	sbcs	r2, r2
    3c3c:	1b0c      	subs	r4, r1, r4
    3c3e:	4255      	negs	r5, r2
    3c40:	1b65      	subs	r5, r4, r5
    3c42:	4698      	mov	r8, r3
    3c44:	e714      	b.n	3a70 <__aeabi_dsub+0xbc>
    3c46:	2501      	movs	r5, #1
    3c48:	4643      	mov	r3, r8
    3c4a:	2400      	movs	r4, #0
    3c4c:	401d      	ands	r5, r3
    3c4e:	2700      	movs	r7, #0
    3c50:	e755      	b.n	3afe <__aeabi_dsub+0x14a>
    3c52:	4c2a      	ldr	r4, [pc, #168]	; (3cfc <__aeabi_dsub+0x348>)
    3c54:	1af6      	subs	r6, r6, r3
    3c56:	402c      	ands	r4, r5
    3c58:	e732      	b.n	3ac0 <__aeabi_dsub+0x10c>
    3c5a:	003d      	movs	r5, r7
    3c5c:	3828      	subs	r0, #40	; 0x28
    3c5e:	4085      	lsls	r5, r0
    3c60:	2700      	movs	r7, #0
    3c62:	e717      	b.n	3a94 <__aeabi_dsub+0xe0>
    3c64:	0038      	movs	r0, r7
    3c66:	f000 fa27 	bl	40b8 <__clzsi2>
    3c6a:	3020      	adds	r0, #32
    3c6c:	e706      	b.n	3a7c <__aeabi_dsub+0xc8>
    3c6e:	430a      	orrs	r2, r1
    3c70:	0017      	movs	r7, r2
    3c72:	2100      	movs	r1, #0
    3c74:	1e7a      	subs	r2, r7, #1
    3c76:	4197      	sbcs	r7, r2
    3c78:	e6ee      	b.n	3a58 <__aeabi_dsub+0xa4>
    3c7a:	2b00      	cmp	r3, #0
    3c7c:	d000      	beq.n	3c80 <__aeabi_dsub+0x2cc>
    3c7e:	e0e5      	b.n	3e4c <__aeabi_dsub+0x498>
    3c80:	1c73      	adds	r3, r6, #1
    3c82:	469c      	mov	ip, r3
    3c84:	055b      	lsls	r3, r3, #21
    3c86:	0d5b      	lsrs	r3, r3, #21
    3c88:	2b01      	cmp	r3, #1
    3c8a:	dc00      	bgt.n	3c8e <__aeabi_dsub+0x2da>
    3c8c:	e09f      	b.n	3dce <__aeabi_dsub+0x41a>
    3c8e:	4b1a      	ldr	r3, [pc, #104]	; (3cf8 <__aeabi_dsub+0x344>)
    3c90:	459c      	cmp	ip, r3
    3c92:	d100      	bne.n	3c96 <__aeabi_dsub+0x2e2>
    3c94:	e0c5      	b.n	3e22 <__aeabi_dsub+0x46e>
    3c96:	4452      	add	r2, sl
    3c98:	4552      	cmp	r2, sl
    3c9a:	4180      	sbcs	r0, r0
    3c9c:	1864      	adds	r4, r4, r1
    3c9e:	4240      	negs	r0, r0
    3ca0:	1824      	adds	r4, r4, r0
    3ca2:	07e7      	lsls	r7, r4, #31
    3ca4:	0852      	lsrs	r2, r2, #1
    3ca6:	4317      	orrs	r7, r2
    3ca8:	0864      	lsrs	r4, r4, #1
    3caa:	4666      	mov	r6, ip
    3cac:	e708      	b.n	3ac0 <__aeabi_dsub+0x10c>
    3cae:	4812      	ldr	r0, [pc, #72]	; (3cf8 <__aeabi_dsub+0x344>)
    3cb0:	4285      	cmp	r5, r0
    3cb2:	d100      	bne.n	3cb6 <__aeabi_dsub+0x302>
    3cb4:	e085      	b.n	3dc2 <__aeabi_dsub+0x40e>
    3cb6:	001d      	movs	r5, r3
    3cb8:	e6bc      	b.n	3a34 <__aeabi_dsub+0x80>
    3cba:	0029      	movs	r1, r5
    3cbc:	3e1f      	subs	r6, #31
    3cbe:	40f1      	lsrs	r1, r6
    3cc0:	2b20      	cmp	r3, #32
    3cc2:	d100      	bne.n	3cc6 <__aeabi_dsub+0x312>
    3cc4:	e07f      	b.n	3dc6 <__aeabi_dsub+0x412>
    3cc6:	2240      	movs	r2, #64	; 0x40
    3cc8:	1ad3      	subs	r3, r2, r3
    3cca:	409d      	lsls	r5, r3
    3ccc:	432f      	orrs	r7, r5
    3cce:	1e7d      	subs	r5, r7, #1
    3cd0:	41af      	sbcs	r7, r5
    3cd2:	2400      	movs	r4, #0
    3cd4:	430f      	orrs	r7, r1
    3cd6:	2600      	movs	r6, #0
    3cd8:	e78e      	b.n	3bf8 <__aeabi_dsub+0x244>
    3cda:	002b      	movs	r3, r5
    3cdc:	000f      	movs	r7, r1
    3cde:	3b20      	subs	r3, #32
    3ce0:	40df      	lsrs	r7, r3
    3ce2:	2d20      	cmp	r5, #32
    3ce4:	d071      	beq.n	3dca <__aeabi_dsub+0x416>
    3ce6:	2340      	movs	r3, #64	; 0x40
    3ce8:	1b5d      	subs	r5, r3, r5
    3cea:	40a9      	lsls	r1, r5
    3cec:	430a      	orrs	r2, r1
    3cee:	1e51      	subs	r1, r2, #1
    3cf0:	418a      	sbcs	r2, r1
    3cf2:	2100      	movs	r1, #0
    3cf4:	4317      	orrs	r7, r2
    3cf6:	e6af      	b.n	3a58 <__aeabi_dsub+0xa4>
    3cf8:	000007ff 	.word	0x000007ff
    3cfc:	ff7fffff 	.word	0xff7fffff
    3d00:	800fffff 	.word	0x800fffff
    3d04:	2e00      	cmp	r6, #0
    3d06:	d03e      	beq.n	3d86 <__aeabi_dsub+0x3d2>
    3d08:	4eb3      	ldr	r6, [pc, #716]	; (3fd8 <__aeabi_dsub+0x624>)
    3d0a:	45b4      	cmp	ip, r6
    3d0c:	d045      	beq.n	3d9a <__aeabi_dsub+0x3e6>
    3d0e:	2680      	movs	r6, #128	; 0x80
    3d10:	0436      	lsls	r6, r6, #16
    3d12:	426d      	negs	r5, r5
    3d14:	4334      	orrs	r4, r6
    3d16:	2d38      	cmp	r5, #56	; 0x38
    3d18:	dd00      	ble.n	3d1c <__aeabi_dsub+0x368>
    3d1a:	e0a8      	b.n	3e6e <__aeabi_dsub+0x4ba>
    3d1c:	2d1f      	cmp	r5, #31
    3d1e:	dd00      	ble.n	3d22 <__aeabi_dsub+0x36e>
    3d20:	e11f      	b.n	3f62 <__aeabi_dsub+0x5ae>
    3d22:	2620      	movs	r6, #32
    3d24:	0027      	movs	r7, r4
    3d26:	4650      	mov	r0, sl
    3d28:	1b76      	subs	r6, r6, r5
    3d2a:	40b7      	lsls	r7, r6
    3d2c:	40e8      	lsrs	r0, r5
    3d2e:	4307      	orrs	r7, r0
    3d30:	4650      	mov	r0, sl
    3d32:	40b0      	lsls	r0, r6
    3d34:	1e46      	subs	r6, r0, #1
    3d36:	41b0      	sbcs	r0, r6
    3d38:	40ec      	lsrs	r4, r5
    3d3a:	4338      	orrs	r0, r7
    3d3c:	1a17      	subs	r7, r2, r0
    3d3e:	42ba      	cmp	r2, r7
    3d40:	4192      	sbcs	r2, r2
    3d42:	1b0c      	subs	r4, r1, r4
    3d44:	4252      	negs	r2, r2
    3d46:	1aa4      	subs	r4, r4, r2
    3d48:	4666      	mov	r6, ip
    3d4a:	4698      	mov	r8, r3
    3d4c:	e68b      	b.n	3a66 <__aeabi_dsub+0xb2>
    3d4e:	4664      	mov	r4, ip
    3d50:	4667      	mov	r7, ip
    3d52:	432c      	orrs	r4, r5
    3d54:	d000      	beq.n	3d58 <__aeabi_dsub+0x3a4>
    3d56:	e68b      	b.n	3a70 <__aeabi_dsub+0xbc>
    3d58:	2500      	movs	r5, #0
    3d5a:	2600      	movs	r6, #0
    3d5c:	2700      	movs	r7, #0
    3d5e:	e6ea      	b.n	3b36 <__aeabi_dsub+0x182>
    3d60:	001e      	movs	r6, r3
    3d62:	e6ad      	b.n	3ac0 <__aeabi_dsub+0x10c>
    3d64:	2b1f      	cmp	r3, #31
    3d66:	dc60      	bgt.n	3e2a <__aeabi_dsub+0x476>
    3d68:	2720      	movs	r7, #32
    3d6a:	1af8      	subs	r0, r7, r3
    3d6c:	000f      	movs	r7, r1
    3d6e:	4684      	mov	ip, r0
    3d70:	4087      	lsls	r7, r0
    3d72:	0010      	movs	r0, r2
    3d74:	40d8      	lsrs	r0, r3
    3d76:	4307      	orrs	r7, r0
    3d78:	4660      	mov	r0, ip
    3d7a:	4082      	lsls	r2, r0
    3d7c:	1e50      	subs	r0, r2, #1
    3d7e:	4182      	sbcs	r2, r0
    3d80:	40d9      	lsrs	r1, r3
    3d82:	4317      	orrs	r7, r2
    3d84:	e6f5      	b.n	3b72 <__aeabi_dsub+0x1be>
    3d86:	0026      	movs	r6, r4
    3d88:	4650      	mov	r0, sl
    3d8a:	4306      	orrs	r6, r0
    3d8c:	d005      	beq.n	3d9a <__aeabi_dsub+0x3e6>
    3d8e:	43ed      	mvns	r5, r5
    3d90:	2d00      	cmp	r5, #0
    3d92:	d0d3      	beq.n	3d3c <__aeabi_dsub+0x388>
    3d94:	4e90      	ldr	r6, [pc, #576]	; (3fd8 <__aeabi_dsub+0x624>)
    3d96:	45b4      	cmp	ip, r6
    3d98:	d1bd      	bne.n	3d16 <__aeabi_dsub+0x362>
    3d9a:	000c      	movs	r4, r1
    3d9c:	0017      	movs	r7, r2
    3d9e:	4666      	mov	r6, ip
    3da0:	4698      	mov	r8, r3
    3da2:	e68d      	b.n	3ac0 <__aeabi_dsub+0x10c>
    3da4:	488c      	ldr	r0, [pc, #560]	; (3fd8 <__aeabi_dsub+0x624>)
    3da6:	4283      	cmp	r3, r0
    3da8:	d00b      	beq.n	3dc2 <__aeabi_dsub+0x40e>
    3daa:	4663      	mov	r3, ip
    3dac:	e6d9      	b.n	3b62 <__aeabi_dsub+0x1ae>
    3dae:	2d00      	cmp	r5, #0
    3db0:	d000      	beq.n	3db4 <__aeabi_dsub+0x400>
    3db2:	e096      	b.n	3ee2 <__aeabi_dsub+0x52e>
    3db4:	0008      	movs	r0, r1
    3db6:	4310      	orrs	r0, r2
    3db8:	d100      	bne.n	3dbc <__aeabi_dsub+0x408>
    3dba:	e0e2      	b.n	3f82 <__aeabi_dsub+0x5ce>
    3dbc:	000c      	movs	r4, r1
    3dbe:	0017      	movs	r7, r2
    3dc0:	4698      	mov	r8, r3
    3dc2:	4e85      	ldr	r6, [pc, #532]	; (3fd8 <__aeabi_dsub+0x624>)
    3dc4:	e67c      	b.n	3ac0 <__aeabi_dsub+0x10c>
    3dc6:	2500      	movs	r5, #0
    3dc8:	e780      	b.n	3ccc <__aeabi_dsub+0x318>
    3dca:	2100      	movs	r1, #0
    3dcc:	e78e      	b.n	3cec <__aeabi_dsub+0x338>
    3dce:	0023      	movs	r3, r4
    3dd0:	4650      	mov	r0, sl
    3dd2:	4303      	orrs	r3, r0
    3dd4:	2e00      	cmp	r6, #0
    3dd6:	d000      	beq.n	3dda <__aeabi_dsub+0x426>
    3dd8:	e0a8      	b.n	3f2c <__aeabi_dsub+0x578>
    3dda:	2b00      	cmp	r3, #0
    3ddc:	d100      	bne.n	3de0 <__aeabi_dsub+0x42c>
    3dde:	e0de      	b.n	3f9e <__aeabi_dsub+0x5ea>
    3de0:	000b      	movs	r3, r1
    3de2:	4313      	orrs	r3, r2
    3de4:	d100      	bne.n	3de8 <__aeabi_dsub+0x434>
    3de6:	e66b      	b.n	3ac0 <__aeabi_dsub+0x10c>
    3de8:	4452      	add	r2, sl
    3dea:	4552      	cmp	r2, sl
    3dec:	4180      	sbcs	r0, r0
    3dee:	1864      	adds	r4, r4, r1
    3df0:	4240      	negs	r0, r0
    3df2:	1824      	adds	r4, r4, r0
    3df4:	0017      	movs	r7, r2
    3df6:	0223      	lsls	r3, r4, #8
    3df8:	d400      	bmi.n	3dfc <__aeabi_dsub+0x448>
    3dfa:	e6fd      	b.n	3bf8 <__aeabi_dsub+0x244>
    3dfc:	4b77      	ldr	r3, [pc, #476]	; (3fdc <__aeabi_dsub+0x628>)
    3dfe:	4666      	mov	r6, ip
    3e00:	401c      	ands	r4, r3
    3e02:	e65d      	b.n	3ac0 <__aeabi_dsub+0x10c>
    3e04:	0025      	movs	r5, r4
    3e06:	4650      	mov	r0, sl
    3e08:	4305      	orrs	r5, r0
    3e0a:	2e00      	cmp	r6, #0
    3e0c:	d1cf      	bne.n	3dae <__aeabi_dsub+0x3fa>
    3e0e:	2d00      	cmp	r5, #0
    3e10:	d14f      	bne.n	3eb2 <__aeabi_dsub+0x4fe>
    3e12:	000c      	movs	r4, r1
    3e14:	4314      	orrs	r4, r2
    3e16:	d100      	bne.n	3e1a <__aeabi_dsub+0x466>
    3e18:	e0a0      	b.n	3f5c <__aeabi_dsub+0x5a8>
    3e1a:	000c      	movs	r4, r1
    3e1c:	0017      	movs	r7, r2
    3e1e:	4698      	mov	r8, r3
    3e20:	e64e      	b.n	3ac0 <__aeabi_dsub+0x10c>
    3e22:	4666      	mov	r6, ip
    3e24:	2400      	movs	r4, #0
    3e26:	2700      	movs	r7, #0
    3e28:	e685      	b.n	3b36 <__aeabi_dsub+0x182>
    3e2a:	001f      	movs	r7, r3
    3e2c:	0008      	movs	r0, r1
    3e2e:	3f20      	subs	r7, #32
    3e30:	40f8      	lsrs	r0, r7
    3e32:	0007      	movs	r7, r0
    3e34:	2b20      	cmp	r3, #32
    3e36:	d100      	bne.n	3e3a <__aeabi_dsub+0x486>
    3e38:	e08e      	b.n	3f58 <__aeabi_dsub+0x5a4>
    3e3a:	2040      	movs	r0, #64	; 0x40
    3e3c:	1ac3      	subs	r3, r0, r3
    3e3e:	4099      	lsls	r1, r3
    3e40:	430a      	orrs	r2, r1
    3e42:	1e51      	subs	r1, r2, #1
    3e44:	418a      	sbcs	r2, r1
    3e46:	2100      	movs	r1, #0
    3e48:	4317      	orrs	r7, r2
    3e4a:	e692      	b.n	3b72 <__aeabi_dsub+0x1be>
    3e4c:	2e00      	cmp	r6, #0
    3e4e:	d114      	bne.n	3e7a <__aeabi_dsub+0x4c6>
    3e50:	0026      	movs	r6, r4
    3e52:	4650      	mov	r0, sl
    3e54:	4306      	orrs	r6, r0
    3e56:	d062      	beq.n	3f1e <__aeabi_dsub+0x56a>
    3e58:	43db      	mvns	r3, r3
    3e5a:	2b00      	cmp	r3, #0
    3e5c:	d15c      	bne.n	3f18 <__aeabi_dsub+0x564>
    3e5e:	1887      	adds	r7, r0, r2
    3e60:	4297      	cmp	r7, r2
    3e62:	4192      	sbcs	r2, r2
    3e64:	1864      	adds	r4, r4, r1
    3e66:	4252      	negs	r2, r2
    3e68:	18a4      	adds	r4, r4, r2
    3e6a:	4666      	mov	r6, ip
    3e6c:	e687      	b.n	3b7e <__aeabi_dsub+0x1ca>
    3e6e:	4650      	mov	r0, sl
    3e70:	4320      	orrs	r0, r4
    3e72:	1e44      	subs	r4, r0, #1
    3e74:	41a0      	sbcs	r0, r4
    3e76:	2400      	movs	r4, #0
    3e78:	e760      	b.n	3d3c <__aeabi_dsub+0x388>
    3e7a:	4e57      	ldr	r6, [pc, #348]	; (3fd8 <__aeabi_dsub+0x624>)
    3e7c:	45b4      	cmp	ip, r6
    3e7e:	d04e      	beq.n	3f1e <__aeabi_dsub+0x56a>
    3e80:	2680      	movs	r6, #128	; 0x80
    3e82:	0436      	lsls	r6, r6, #16
    3e84:	425b      	negs	r3, r3
    3e86:	4334      	orrs	r4, r6
    3e88:	2b38      	cmp	r3, #56	; 0x38
    3e8a:	dd00      	ble.n	3e8e <__aeabi_dsub+0x4da>
    3e8c:	e07f      	b.n	3f8e <__aeabi_dsub+0x5da>
    3e8e:	2b1f      	cmp	r3, #31
    3e90:	dd00      	ble.n	3e94 <__aeabi_dsub+0x4e0>
    3e92:	e08b      	b.n	3fac <__aeabi_dsub+0x5f8>
    3e94:	2620      	movs	r6, #32
    3e96:	0027      	movs	r7, r4
    3e98:	4650      	mov	r0, sl
    3e9a:	1af6      	subs	r6, r6, r3
    3e9c:	40b7      	lsls	r7, r6
    3e9e:	40d8      	lsrs	r0, r3
    3ea0:	4307      	orrs	r7, r0
    3ea2:	4650      	mov	r0, sl
    3ea4:	40b0      	lsls	r0, r6
    3ea6:	1e46      	subs	r6, r0, #1
    3ea8:	41b0      	sbcs	r0, r6
    3eaa:	4307      	orrs	r7, r0
    3eac:	40dc      	lsrs	r4, r3
    3eae:	18bf      	adds	r7, r7, r2
    3eb0:	e7d6      	b.n	3e60 <__aeabi_dsub+0x4ac>
    3eb2:	000d      	movs	r5, r1
    3eb4:	4315      	orrs	r5, r2
    3eb6:	d100      	bne.n	3eba <__aeabi_dsub+0x506>
    3eb8:	e602      	b.n	3ac0 <__aeabi_dsub+0x10c>
    3eba:	4650      	mov	r0, sl
    3ebc:	1a80      	subs	r0, r0, r2
    3ebe:	4582      	cmp	sl, r0
    3ec0:	41bf      	sbcs	r7, r7
    3ec2:	1a65      	subs	r5, r4, r1
    3ec4:	427f      	negs	r7, r7
    3ec6:	1bed      	subs	r5, r5, r7
    3ec8:	4684      	mov	ip, r0
    3eca:	0228      	lsls	r0, r5, #8
    3ecc:	d400      	bmi.n	3ed0 <__aeabi_dsub+0x51c>
    3ece:	e68d      	b.n	3bec <__aeabi_dsub+0x238>
    3ed0:	4650      	mov	r0, sl
    3ed2:	1a17      	subs	r7, r2, r0
    3ed4:	42ba      	cmp	r2, r7
    3ed6:	4192      	sbcs	r2, r2
    3ed8:	1b0c      	subs	r4, r1, r4
    3eda:	4252      	negs	r2, r2
    3edc:	1aa4      	subs	r4, r4, r2
    3ede:	4698      	mov	r8, r3
    3ee0:	e5ee      	b.n	3ac0 <__aeabi_dsub+0x10c>
    3ee2:	000d      	movs	r5, r1
    3ee4:	4315      	orrs	r5, r2
    3ee6:	d100      	bne.n	3eea <__aeabi_dsub+0x536>
    3ee8:	e76b      	b.n	3dc2 <__aeabi_dsub+0x40e>
    3eea:	4650      	mov	r0, sl
    3eec:	0767      	lsls	r7, r4, #29
    3eee:	08c0      	lsrs	r0, r0, #3
    3ef0:	4307      	orrs	r7, r0
    3ef2:	2080      	movs	r0, #128	; 0x80
    3ef4:	08e4      	lsrs	r4, r4, #3
    3ef6:	0300      	lsls	r0, r0, #12
    3ef8:	4204      	tst	r4, r0
    3efa:	d007      	beq.n	3f0c <__aeabi_dsub+0x558>
    3efc:	08cd      	lsrs	r5, r1, #3
    3efe:	4205      	tst	r5, r0
    3f00:	d104      	bne.n	3f0c <__aeabi_dsub+0x558>
    3f02:	002c      	movs	r4, r5
    3f04:	4698      	mov	r8, r3
    3f06:	08d7      	lsrs	r7, r2, #3
    3f08:	0749      	lsls	r1, r1, #29
    3f0a:	430f      	orrs	r7, r1
    3f0c:	0f7b      	lsrs	r3, r7, #29
    3f0e:	00e4      	lsls	r4, r4, #3
    3f10:	431c      	orrs	r4, r3
    3f12:	00ff      	lsls	r7, r7, #3
    3f14:	4e30      	ldr	r6, [pc, #192]	; (3fd8 <__aeabi_dsub+0x624>)
    3f16:	e5d3      	b.n	3ac0 <__aeabi_dsub+0x10c>
    3f18:	4e2f      	ldr	r6, [pc, #188]	; (3fd8 <__aeabi_dsub+0x624>)
    3f1a:	45b4      	cmp	ip, r6
    3f1c:	d1b4      	bne.n	3e88 <__aeabi_dsub+0x4d4>
    3f1e:	000c      	movs	r4, r1
    3f20:	0017      	movs	r7, r2
    3f22:	4666      	mov	r6, ip
    3f24:	e5cc      	b.n	3ac0 <__aeabi_dsub+0x10c>
    3f26:	2700      	movs	r7, #0
    3f28:	2400      	movs	r4, #0
    3f2a:	e5e8      	b.n	3afe <__aeabi_dsub+0x14a>
    3f2c:	2b00      	cmp	r3, #0
    3f2e:	d039      	beq.n	3fa4 <__aeabi_dsub+0x5f0>
    3f30:	000b      	movs	r3, r1
    3f32:	4313      	orrs	r3, r2
    3f34:	d100      	bne.n	3f38 <__aeabi_dsub+0x584>
    3f36:	e744      	b.n	3dc2 <__aeabi_dsub+0x40e>
    3f38:	08c0      	lsrs	r0, r0, #3
    3f3a:	0767      	lsls	r7, r4, #29
    3f3c:	4307      	orrs	r7, r0
    3f3e:	2080      	movs	r0, #128	; 0x80
    3f40:	08e4      	lsrs	r4, r4, #3
    3f42:	0300      	lsls	r0, r0, #12
    3f44:	4204      	tst	r4, r0
    3f46:	d0e1      	beq.n	3f0c <__aeabi_dsub+0x558>
    3f48:	08cb      	lsrs	r3, r1, #3
    3f4a:	4203      	tst	r3, r0
    3f4c:	d1de      	bne.n	3f0c <__aeabi_dsub+0x558>
    3f4e:	08d7      	lsrs	r7, r2, #3
    3f50:	0749      	lsls	r1, r1, #29
    3f52:	430f      	orrs	r7, r1
    3f54:	001c      	movs	r4, r3
    3f56:	e7d9      	b.n	3f0c <__aeabi_dsub+0x558>
    3f58:	2100      	movs	r1, #0
    3f5a:	e771      	b.n	3e40 <__aeabi_dsub+0x48c>
    3f5c:	2500      	movs	r5, #0
    3f5e:	2700      	movs	r7, #0
    3f60:	e5e9      	b.n	3b36 <__aeabi_dsub+0x182>
    3f62:	002e      	movs	r6, r5
    3f64:	0027      	movs	r7, r4
    3f66:	3e20      	subs	r6, #32
    3f68:	40f7      	lsrs	r7, r6
    3f6a:	2d20      	cmp	r5, #32
    3f6c:	d02f      	beq.n	3fce <__aeabi_dsub+0x61a>
    3f6e:	2640      	movs	r6, #64	; 0x40
    3f70:	1b75      	subs	r5, r6, r5
    3f72:	40ac      	lsls	r4, r5
    3f74:	4650      	mov	r0, sl
    3f76:	4320      	orrs	r0, r4
    3f78:	1e44      	subs	r4, r0, #1
    3f7a:	41a0      	sbcs	r0, r4
    3f7c:	2400      	movs	r4, #0
    3f7e:	4338      	orrs	r0, r7
    3f80:	e6dc      	b.n	3d3c <__aeabi_dsub+0x388>
    3f82:	2480      	movs	r4, #128	; 0x80
    3f84:	2500      	movs	r5, #0
    3f86:	0324      	lsls	r4, r4, #12
    3f88:	4e13      	ldr	r6, [pc, #76]	; (3fd8 <__aeabi_dsub+0x624>)
    3f8a:	2700      	movs	r7, #0
    3f8c:	e5d3      	b.n	3b36 <__aeabi_dsub+0x182>
    3f8e:	4650      	mov	r0, sl
    3f90:	4320      	orrs	r0, r4
    3f92:	0007      	movs	r7, r0
    3f94:	1e78      	subs	r0, r7, #1
    3f96:	4187      	sbcs	r7, r0
    3f98:	2400      	movs	r4, #0
    3f9a:	18bf      	adds	r7, r7, r2
    3f9c:	e760      	b.n	3e60 <__aeabi_dsub+0x4ac>
    3f9e:	000c      	movs	r4, r1
    3fa0:	0017      	movs	r7, r2
    3fa2:	e58d      	b.n	3ac0 <__aeabi_dsub+0x10c>
    3fa4:	000c      	movs	r4, r1
    3fa6:	0017      	movs	r7, r2
    3fa8:	4e0b      	ldr	r6, [pc, #44]	; (3fd8 <__aeabi_dsub+0x624>)
    3faa:	e589      	b.n	3ac0 <__aeabi_dsub+0x10c>
    3fac:	001e      	movs	r6, r3
    3fae:	0027      	movs	r7, r4
    3fb0:	3e20      	subs	r6, #32
    3fb2:	40f7      	lsrs	r7, r6
    3fb4:	2b20      	cmp	r3, #32
    3fb6:	d00c      	beq.n	3fd2 <__aeabi_dsub+0x61e>
    3fb8:	2640      	movs	r6, #64	; 0x40
    3fba:	1af3      	subs	r3, r6, r3
    3fbc:	409c      	lsls	r4, r3
    3fbe:	4650      	mov	r0, sl
    3fc0:	4320      	orrs	r0, r4
    3fc2:	1e44      	subs	r4, r0, #1
    3fc4:	41a0      	sbcs	r0, r4
    3fc6:	4307      	orrs	r7, r0
    3fc8:	2400      	movs	r4, #0
    3fca:	18bf      	adds	r7, r7, r2
    3fcc:	e748      	b.n	3e60 <__aeabi_dsub+0x4ac>
    3fce:	2400      	movs	r4, #0
    3fd0:	e7d0      	b.n	3f74 <__aeabi_dsub+0x5c0>
    3fd2:	2400      	movs	r4, #0
    3fd4:	e7f3      	b.n	3fbe <__aeabi_dsub+0x60a>
    3fd6:	46c0      	nop			; (mov r8, r8)
    3fd8:	000007ff 	.word	0x000007ff
    3fdc:	ff7fffff 	.word	0xff7fffff

00003fe0 <__aeabi_d2iz>:
    3fe0:	b530      	push	{r4, r5, lr}
    3fe2:	4d13      	ldr	r5, [pc, #76]	; (4030 <__aeabi_d2iz+0x50>)
    3fe4:	030a      	lsls	r2, r1, #12
    3fe6:	004b      	lsls	r3, r1, #1
    3fe8:	0b12      	lsrs	r2, r2, #12
    3fea:	0d5b      	lsrs	r3, r3, #21
    3fec:	0fc9      	lsrs	r1, r1, #31
    3fee:	2400      	movs	r4, #0
    3ff0:	42ab      	cmp	r3, r5
    3ff2:	dd10      	ble.n	4016 <__aeabi_d2iz+0x36>
    3ff4:	4c0f      	ldr	r4, [pc, #60]	; (4034 <__aeabi_d2iz+0x54>)
    3ff6:	42a3      	cmp	r3, r4
    3ff8:	dc0f      	bgt.n	401a <__aeabi_d2iz+0x3a>
    3ffa:	2480      	movs	r4, #128	; 0x80
    3ffc:	4d0e      	ldr	r5, [pc, #56]	; (4038 <__aeabi_d2iz+0x58>)
    3ffe:	0364      	lsls	r4, r4, #13
    4000:	4322      	orrs	r2, r4
    4002:	1aed      	subs	r5, r5, r3
    4004:	2d1f      	cmp	r5, #31
    4006:	dd0b      	ble.n	4020 <__aeabi_d2iz+0x40>
    4008:	480c      	ldr	r0, [pc, #48]	; (403c <__aeabi_d2iz+0x5c>)
    400a:	1ac3      	subs	r3, r0, r3
    400c:	40da      	lsrs	r2, r3
    400e:	4254      	negs	r4, r2
    4010:	2900      	cmp	r1, #0
    4012:	d100      	bne.n	4016 <__aeabi_d2iz+0x36>
    4014:	0014      	movs	r4, r2
    4016:	0020      	movs	r0, r4
    4018:	bd30      	pop	{r4, r5, pc}
    401a:	4b09      	ldr	r3, [pc, #36]	; (4040 <__aeabi_d2iz+0x60>)
    401c:	18cc      	adds	r4, r1, r3
    401e:	e7fa      	b.n	4016 <__aeabi_d2iz+0x36>
    4020:	4c08      	ldr	r4, [pc, #32]	; (4044 <__aeabi_d2iz+0x64>)
    4022:	40e8      	lsrs	r0, r5
    4024:	46a4      	mov	ip, r4
    4026:	4463      	add	r3, ip
    4028:	409a      	lsls	r2, r3
    402a:	4302      	orrs	r2, r0
    402c:	e7ef      	b.n	400e <__aeabi_d2iz+0x2e>
    402e:	46c0      	nop			; (mov r8, r8)
    4030:	000003fe 	.word	0x000003fe
    4034:	0000041d 	.word	0x0000041d
    4038:	00000433 	.word	0x00000433
    403c:	00000413 	.word	0x00000413
    4040:	7fffffff 	.word	0x7fffffff
    4044:	fffffbed 	.word	0xfffffbed

00004048 <__aeabi_ui2d>:
    4048:	b510      	push	{r4, lr}
    404a:	1e04      	subs	r4, r0, #0
    404c:	d028      	beq.n	40a0 <__aeabi_ui2d+0x58>
    404e:	f000 f833 	bl	40b8 <__clzsi2>
    4052:	4b15      	ldr	r3, [pc, #84]	; (40a8 <__aeabi_ui2d+0x60>)
    4054:	4a15      	ldr	r2, [pc, #84]	; (40ac <__aeabi_ui2d+0x64>)
    4056:	1a1b      	subs	r3, r3, r0
    4058:	1ad2      	subs	r2, r2, r3
    405a:	2a1f      	cmp	r2, #31
    405c:	dd15      	ble.n	408a <__aeabi_ui2d+0x42>
    405e:	4a14      	ldr	r2, [pc, #80]	; (40b0 <__aeabi_ui2d+0x68>)
    4060:	1ad2      	subs	r2, r2, r3
    4062:	4094      	lsls	r4, r2
    4064:	2200      	movs	r2, #0
    4066:	0324      	lsls	r4, r4, #12
    4068:	055b      	lsls	r3, r3, #21
    406a:	0b24      	lsrs	r4, r4, #12
    406c:	0d5b      	lsrs	r3, r3, #21
    406e:	2100      	movs	r1, #0
    4070:	0010      	movs	r0, r2
    4072:	0324      	lsls	r4, r4, #12
    4074:	0d0a      	lsrs	r2, r1, #20
    4076:	0b24      	lsrs	r4, r4, #12
    4078:	0512      	lsls	r2, r2, #20
    407a:	4322      	orrs	r2, r4
    407c:	4c0d      	ldr	r4, [pc, #52]	; (40b4 <__aeabi_ui2d+0x6c>)
    407e:	051b      	lsls	r3, r3, #20
    4080:	4022      	ands	r2, r4
    4082:	4313      	orrs	r3, r2
    4084:	005b      	lsls	r3, r3, #1
    4086:	0859      	lsrs	r1, r3, #1
    4088:	bd10      	pop	{r4, pc}
    408a:	0021      	movs	r1, r4
    408c:	4091      	lsls	r1, r2
    408e:	000a      	movs	r2, r1
    4090:	210b      	movs	r1, #11
    4092:	1a08      	subs	r0, r1, r0
    4094:	40c4      	lsrs	r4, r0
    4096:	055b      	lsls	r3, r3, #21
    4098:	0324      	lsls	r4, r4, #12
    409a:	0b24      	lsrs	r4, r4, #12
    409c:	0d5b      	lsrs	r3, r3, #21
    409e:	e7e6      	b.n	406e <__aeabi_ui2d+0x26>
    40a0:	2300      	movs	r3, #0
    40a2:	2400      	movs	r4, #0
    40a4:	2200      	movs	r2, #0
    40a6:	e7e2      	b.n	406e <__aeabi_ui2d+0x26>
    40a8:	0000041e 	.word	0x0000041e
    40ac:	00000433 	.word	0x00000433
    40b0:	00000413 	.word	0x00000413
    40b4:	800fffff 	.word	0x800fffff

000040b8 <__clzsi2>:
    40b8:	211c      	movs	r1, #28
    40ba:	2301      	movs	r3, #1
    40bc:	041b      	lsls	r3, r3, #16
    40be:	4298      	cmp	r0, r3
    40c0:	d301      	bcc.n	40c6 <__clzsi2+0xe>
    40c2:	0c00      	lsrs	r0, r0, #16
    40c4:	3910      	subs	r1, #16
    40c6:	0a1b      	lsrs	r3, r3, #8
    40c8:	4298      	cmp	r0, r3
    40ca:	d301      	bcc.n	40d0 <__clzsi2+0x18>
    40cc:	0a00      	lsrs	r0, r0, #8
    40ce:	3908      	subs	r1, #8
    40d0:	091b      	lsrs	r3, r3, #4
    40d2:	4298      	cmp	r0, r3
    40d4:	d301      	bcc.n	40da <__clzsi2+0x22>
    40d6:	0900      	lsrs	r0, r0, #4
    40d8:	3904      	subs	r1, #4
    40da:	a202      	add	r2, pc, #8	; (adr r2, 40e4 <__clzsi2+0x2c>)
    40dc:	5c10      	ldrb	r0, [r2, r0]
    40de:	1840      	adds	r0, r0, r1
    40e0:	4770      	bx	lr
    40e2:	46c0      	nop			; (mov r8, r8)
    40e4:	02020304 	.word	0x02020304
    40e8:	01010101 	.word	0x01010101
	...

000040f4 <__libc_init_array>:
    40f4:	b570      	push	{r4, r5, r6, lr}
    40f6:	2600      	movs	r6, #0
    40f8:	4d0c      	ldr	r5, [pc, #48]	; (412c <__libc_init_array+0x38>)
    40fa:	4c0d      	ldr	r4, [pc, #52]	; (4130 <__libc_init_array+0x3c>)
    40fc:	1b64      	subs	r4, r4, r5
    40fe:	10a4      	asrs	r4, r4, #2
    4100:	42a6      	cmp	r6, r4
    4102:	d109      	bne.n	4118 <__libc_init_array+0x24>
    4104:	2600      	movs	r6, #0
    4106:	f000 f8bb 	bl	4280 <_init>
    410a:	4d0a      	ldr	r5, [pc, #40]	; (4134 <__libc_init_array+0x40>)
    410c:	4c0a      	ldr	r4, [pc, #40]	; (4138 <__libc_init_array+0x44>)
    410e:	1b64      	subs	r4, r4, r5
    4110:	10a4      	asrs	r4, r4, #2
    4112:	42a6      	cmp	r6, r4
    4114:	d105      	bne.n	4122 <__libc_init_array+0x2e>
    4116:	bd70      	pop	{r4, r5, r6, pc}
    4118:	00b3      	lsls	r3, r6, #2
    411a:	58eb      	ldr	r3, [r5, r3]
    411c:	4798      	blx	r3
    411e:	3601      	adds	r6, #1
    4120:	e7ee      	b.n	4100 <__libc_init_array+0xc>
    4122:	00b3      	lsls	r3, r6, #2
    4124:	58eb      	ldr	r3, [r5, r3]
    4126:	4798      	blx	r3
    4128:	3601      	adds	r6, #1
    412a:	e7f2      	b.n	4112 <__libc_init_array+0x1e>
    412c:	0000428c 	.word	0x0000428c
    4130:	0000428c 	.word	0x0000428c
    4134:	0000428c 	.word	0x0000428c
    4138:	00004290 	.word	0x00004290

0000413c <memcpy>:
    413c:	2300      	movs	r3, #0
    413e:	b510      	push	{r4, lr}
    4140:	429a      	cmp	r2, r3
    4142:	d100      	bne.n	4146 <memcpy+0xa>
    4144:	bd10      	pop	{r4, pc}
    4146:	5ccc      	ldrb	r4, [r1, r3]
    4148:	54c4      	strb	r4, [r0, r3]
    414a:	3301      	adds	r3, #1
    414c:	e7f8      	b.n	4140 <memcpy+0x4>

0000414e <memset>:
    414e:	0003      	movs	r3, r0
    4150:	1882      	adds	r2, r0, r2
    4152:	4293      	cmp	r3, r2
    4154:	d100      	bne.n	4158 <memset+0xa>
    4156:	4770      	bx	lr
    4158:	7019      	strb	r1, [r3, #0]
    415a:	3301      	adds	r3, #1
    415c:	e7f9      	b.n	4152 <memset+0x4>

0000415e <strncpy>:
    415e:	b570      	push	{r4, r5, r6, lr}
    4160:	0004      	movs	r4, r0
    4162:	2a00      	cmp	r2, #0
    4164:	d100      	bne.n	4168 <strncpy+0xa>
    4166:	bd70      	pop	{r4, r5, r6, pc}
    4168:	780d      	ldrb	r5, [r1, #0]
    416a:	1e56      	subs	r6, r2, #1
    416c:	1c63      	adds	r3, r4, #1
    416e:	7025      	strb	r5, [r4, #0]
    4170:	3101      	adds	r1, #1
    4172:	2d00      	cmp	r5, #0
    4174:	d105      	bne.n	4182 <strncpy+0x24>
    4176:	18a4      	adds	r4, r4, r2
    4178:	429c      	cmp	r4, r3
    417a:	d0f4      	beq.n	4166 <strncpy+0x8>
    417c:	701d      	strb	r5, [r3, #0]
    417e:	3301      	adds	r3, #1
    4180:	e7fa      	b.n	4178 <strncpy+0x1a>
    4182:	001c      	movs	r4, r3
    4184:	0032      	movs	r2, r6
    4186:	e7ec      	b.n	4162 <strncpy+0x4>
    4188:	454c4449 	.word	0x454c4449
    418c:	00000000 	.word	0x00000000
    4190:	20726d54 	.word	0x20726d54
    4194:	00637653 	.word	0x00637653
    4198:	42000800 	.word	0x42000800
    419c:	42000c00 	.word	0x42000c00
    41a0:	42001000 	.word	0x42001000
    41a4:	42001400 	.word	0x42001400
    41a8:	42001800 	.word	0x42001800
    41ac:	42001c00 	.word	0x42001c00
    41b0:	00001f3e 	.word	0x00001f3e
    41b4:	00001f3a 	.word	0x00001f3a
    41b8:	00001f3a 	.word	0x00001f3a
    41bc:	00001f9c 	.word	0x00001f9c
    41c0:	00001f9c 	.word	0x00001f9c
    41c4:	00001f52 	.word	0x00001f52
    41c8:	00001f44 	.word	0x00001f44
    41cc:	00001f58 	.word	0x00001f58
    41d0:	00001f8a 	.word	0x00001f8a
    41d4:	00002024 	.word	0x00002024
    41d8:	00002004 	.word	0x00002004
    41dc:	00002004 	.word	0x00002004
    41e0:	00002090 	.word	0x00002090
    41e4:	00002016 	.word	0x00002016
    41e8:	00002032 	.word	0x00002032
    41ec:	00002008 	.word	0x00002008
    41f0:	00002040 	.word	0x00002040
    41f4:	00002080 	.word	0x00002080
    41f8:	656d6954 	.word	0x656d6954
    41fc:	00000072 	.word	0x00000072
    4200:	00003044 	.word	0x00003044
    4204:	00003026 	.word	0x00003026
    4208:	00002fe0 	.word	0x00002fe0
    420c:	00002efe 	.word	0x00002efe
    4210:	00002fe0 	.word	0x00002fe0
    4214:	00003018 	.word	0x00003018
    4218:	00002fe0 	.word	0x00002fe0
    421c:	00002efe 	.word	0x00002efe
    4220:	00003026 	.word	0x00003026
    4224:	00003026 	.word	0x00003026
    4228:	00003018 	.word	0x00003018
    422c:	00002efe 	.word	0x00002efe
    4230:	00002ef6 	.word	0x00002ef6
    4234:	00002ef6 	.word	0x00002ef6
    4238:	00002ef6 	.word	0x00002ef6
    423c:	0000325c 	.word	0x0000325c
    4240:	000036a4 	.word	0x000036a4
    4244:	00003564 	.word	0x00003564
    4248:	00003564 	.word	0x00003564
    424c:	00003560 	.word	0x00003560
    4250:	0000367c 	.word	0x0000367c
    4254:	0000367c 	.word	0x0000367c
    4258:	0000366e 	.word	0x0000366e
    425c:	00003560 	.word	0x00003560
    4260:	0000367c 	.word	0x0000367c
    4264:	0000366e 	.word	0x0000366e
    4268:	0000367c 	.word	0x0000367c
    426c:	00003560 	.word	0x00003560
    4270:	00003684 	.word	0x00003684
    4274:	00003684 	.word	0x00003684
    4278:	00003684 	.word	0x00003684
    427c:	00003888 	.word	0x00003888

00004280 <_init>:
    4280:	b5f8      	push	{r3, r4, r5, r6, r7, lr}
    4282:	46c0      	nop			; (mov r8, r8)
    4284:	bcf8      	pop	{r3, r4, r5, r6, r7}
    4286:	bc08      	pop	{r3}
    4288:	469e      	mov	lr, r3
    428a:	4770      	bx	lr

0000428c <__init_array_start>:
    428c:	000000dd 	.word	0x000000dd

00004290 <_fini>:
    4290:	b5f8      	push	{r3, r4, r5, r6, r7, lr}
    4292:	46c0      	nop			; (mov r8, r8)
    4294:	bcf8      	pop	{r3, r4, r5, r6, r7}
    4296:	bc08      	pop	{r3}
    4298:	469e      	mov	lr, r3
    429a:	4770      	bx	lr

0000429c <__fini_array_start>:
    429c:	000000b5 	.word	0x000000b5
